Archive member included because of file (symbol)

c:/Users/Derrick/Desktop/nflib_20120804/nflib/examples/graphics/backbuffer/nflib/lib\libnflib.a(nf_2d.o)
                              main.o (NF_Set2D)
c:/Users/Derrick/Desktop/nflib_20120804/nflib/examples/graphics/backbuffer/nflib/lib\libnflib.a(nf_basic.o)
                              c:/Users/Derrick/Desktop/nflib_20120804/nflib/examples/graphics/backbuffer/nflib/lib\libnflib.a(nf_2d.o) (NF_Error)
c:/Users/Derrick/Desktop/nflib_20120804/nflib/examples/graphics/backbuffer/nflib/lib\libnflib.a(nf_bitmapbg.o)
                              main.o (NF_Init16bitsBackBuffer)
c:/Users/Derrick/Desktop/nflib_20120804/nflib/examples/graphics/backbuffer/nflib/lib\libnflib.a(nf_sprite256.o)
                              c:/Users/Derrick/Desktop/nflib_20120804/nflib/examples/graphics/backbuffer/nflib/lib\libnflib.a(nf_2d.o) (NF_BUFFER_SPR256GFX)
c:/Users/Derrick/Desktop/nflib_20120804/nflib/examples/graphics/backbuffer/nflib/lib\libnflib.a(nf_tiledbg.o)
                              c:/Users/Derrick/Desktop/nflib_20120804/nflib/examples/graphics/backbuffer/nflib/lib\libnflib.a(nf_2d.o) (NF_BUFFER_BGMAP)
c:/devkitPro/libnds/lib\libfilesystem.a(nitrofs.o)
                              c:/Users/Derrick/Desktop/nflib_20120804/nflib/examples/graphics/backbuffer/nflib/lib\libnflib.a(nf_basic.o) (nitroFSInit)
c:/devkitPro/libnds/lib\libfat.a(libfat.o)
                              c:/Users/Derrick/Desktop/nflib_20120804/nflib/examples/graphics/backbuffer/nflib/lib\libnflib.a(nf_basic.o) (fatInitDefault)
c:/devkitPro/libnds/lib\libfat.a(partition.o)
                              c:/devkitPro/libnds/lib\libfat.a(libfat.o) (_FAT_partition_constructor)
c:/devkitPro/libnds/lib\libfat.a(cache.o)
                              c:/devkitPro/libnds/lib\libfat.a(partition.o) (_FAT_cache_constructor)
c:/devkitPro/libnds/lib\libfat.a(directory.o)
                              c:/devkitPro/libnds/lib\libfat.a(libfat.o) (_FAT_directory_getVolumeLabel)
c:/devkitPro/libnds/lib\libfat.a(disc.o)
                              c:/devkitPro/libnds/lib\libfat.a(libfat.o) (_FAT_disc_interfaces)
c:/devkitPro/libnds/lib\libfat.a(fatdir.o)
                              c:/devkitPro/libnds/lib\libfat.a(libfat.o) (_FAT_stat_r)
c:/devkitPro/libnds/lib\libfat.a(fatfile.o)
                              c:/devkitPro/libnds/lib\libfat.a(libfat.o) (_FAT_open_r)
c:/devkitPro/libnds/lib\libfat.a(file_allocation_table.o)
                              c:/devkitPro/libnds/lib\libfat.a(directory.o) (_FAT_fat_nextCluster)
c:/devkitPro/libnds/lib\libfat.a(filetime.o)
                              c:/devkitPro/libnds/lib\libfat.a(fatdir.o) (_FAT_filetime_getTimeFromRTC)
c:/devkitPro/libnds/lib\libfat.a(lock.o)
                              c:/devkitPro/libnds/lib\libfat.a(partition.o) (_FAT_lock_init)
c:/devkitPro/libnds/lib\libnds9.a(console.o)
                              c:/Users/Derrick/Desktop/nflib_20120804/nflib/examples/graphics/backbuffer/nflib/lib\libnflib.a(nf_basic.o) (consoleDemoInit)
c:/devkitPro/libnds/lib\libnds9.a(sprite.o)
                              c:/Users/Derrick/Desktop/nflib_20120804/nflib/examples/graphics/backbuffer/nflib/lib\libnflib.a(nf_sprite256.o) (oamInit)
c:/devkitPro/libnds/lib\libnds9.a(sprite_alloc.o)
                              c:/devkitPro/libnds/lib\libnds9.a(sprite.o) (oamAllocReset)
c:/devkitPro/libnds/lib\libnds9.a(trig.o)
                              c:/devkitPro/libnds/lib\libnds9.a(sprite.o) (sinLerp)
c:/devkitPro/libnds/lib\libnds9.a(video.o)
                              c:/Users/Derrick/Desktop/nflib_20120804/nflib/examples/graphics/backbuffer/nflib/lib\libnflib.a(nf_basic.o) (setBrightness)
c:/devkitPro/libnds/lib\libnds9.a(dldi.o)
                              c:/devkitPro/libnds/lib\libfat.a(disc.o) (dldiGetInternal)
c:/devkitPro/libnds/lib\libnds9.a(dsi_sd.o)
                              c:/devkitPro/libnds/lib\libfat.a(disc.o) (__io_dsisd)
c:/devkitPro/libnds/lib\libnds9.a(initSystem.o)
                              c:/devkitpro/devkitarm/bin/../lib/gcc/arm-none-eabi/4.7.1/../../../../arm-none-eabi/lib/thumb/ds_arm9_crt0.o (initSystem)
c:/devkitPro/libnds/lib\libnds9.a(card.o)
                              c:/devkitPro/libnds/lib\libfilesystem.a(nitrofs.o) (cardParamCommand)
c:/devkitPro/libnds/lib\libnds9.a(fifosystem.o)
                              c:/devkitPro/libnds/lib\libnds9.a(dsi_sd.o) (fifoSendValue32)
c:/devkitPro/libnds/lib\libnds9.a(interrupts.o)
                              c:/devkitPro/libnds/lib\libnds9.a(fifosystem.o) (irqSet)
c:/devkitPro/libnds/lib\libnds9.a(libnds_exit.arm.o)
                              c:/devkitpro/devkitarm/bin/../lib/gcc/arm-none-eabi/4.7.1/../../../../arm-none-eabi/lib/thumb/ds_arm9_crt0.o (__libnds_exit)
c:/devkitPro/libnds/lib\libnds9.a(dcache.o)
                              c:/Users/Derrick/Desktop/nflib_20120804/nflib/examples/graphics/backbuffer/nflib/lib\libnflib.a(nf_basic.o) (DC_FlushRange)
c:/devkitPro/libnds/lib\libnds9.a(dldi_stub.o)
                              c:/devkitPro/libnds/lib\libnds9.a(dldi.o) (_io_dldi_stub)
c:/devkitPro/libnds/lib\libnds9.a(mpu_setup.o)
                              c:/devkitpro/devkitarm/bin/../lib/gcc/arm-none-eabi/4.7.1/../../../../arm-none-eabi/lib/thumb/ds_arm9_crt0.o (__libnds_mpu_setup)
c:/devkitPro/libnds/lib\libnds9.a(biosCalls.o)
                              c:/devkitPro/libnds/lib\libnds9.a(card.o) (swiDelay)
c:/devkitPro/libnds/lib\libnds9.a(debugprint.o)
                              c:/devkitPro/libnds/lib\libnds9.a(console.o) (nocashWrite)
c:/devkitPro/libnds/lib\libnds9.a(interruptDispatcher.o)
                              c:/devkitPro/libnds/lib\libnds9.a(interrupts.o) (IntrMain)
c:/devkitPro/libnds/lib\libnds9.a(swiSoftReset.o)
                              c:/devkitPro/libnds/lib\libnds9.a(fifosystem.o) (swiSoftReset)
c:/devkitPro/libnds/lib\libnds9.a(default_font.bin.o)
                              c:/devkitPro/libnds/lib\libnds9.a(console.o) (default_font_bin)
c:/devkitPro/libnds/lib\libnds9.a(background.o)
                              c:/devkitPro/libnds/lib\libnds9.a(console.o) (bgState)
c:/devkitPro/libnds/lib\libnds9.a(system.o)
                              c:/devkitPro/libnds/lib\libnds9.a(initSystem.o) (systemMsgHandler)
c:/devkitpro/devkitarm/bin/../lib/gcc/arm-none-eabi/4.7.1/thumb\libgcc.a(_udivsi3.o)
                              c:/Users/Derrick/Desktop/nflib_20120804/nflib/examples/graphics/backbuffer/nflib/lib\libnflib.a(nf_sprite256.o) (__aeabi_uidiv)
c:/devkitpro/devkitarm/bin/../lib/gcc/arm-none-eabi/4.7.1/thumb\libgcc.a(_divsi3.o)
                              c:/devkitPro/libnds/lib\libfat.a(directory.o) (__aeabi_idiv)
c:/devkitpro/devkitarm/bin/../lib/gcc/arm-none-eabi/4.7.1/thumb\libgcc.a(_dvmd_tls.o)
                              c:/devkitpro/devkitarm/bin/../lib/gcc/arm-none-eabi/4.7.1/thumb\libgcc.a(_udivsi3.o) (__aeabi_idiv0)
c:/devkitpro/devkitarm/bin/../lib/gcc/arm-none-eabi/4.7.1/thumb\libgcc.a(_muldi3.o)
                              c:/devkitPro/libnds/lib\libfat.a(partition.o) (__aeabi_lmul)
c:/devkitpro/devkitarm/bin/../lib/gcc/arm-none-eabi/4.7.1/../../../../arm-none-eabi/lib/thumb\libg.a(lib_a-bsearch.o)
                              c:/devkitPro/libnds/lib\libnds9.a(trig.o) (bsearch)
c:/devkitpro/devkitarm/bin/../lib/gcc/arm-none-eabi/4.7.1/../../../../arm-none-eabi/lib/thumb\libg.a(lib_a-calloc.o)
                              c:/Users/Derrick/Desktop/nflib_20120804/nflib/examples/graphics/backbuffer/nflib/lib\libnflib.a(nf_bitmapbg.o) (calloc)
c:/devkitpro/devkitarm/bin/../lib/gcc/arm-none-eabi/4.7.1/../../../../arm-none-eabi/lib/thumb\libg.a(lib_a-callocr.o)
                              c:/devkitpro/devkitarm/bin/../lib/gcc/arm-none-eabi/4.7.1/../../../../arm-none-eabi/lib/thumb\libg.a(lib_a-calloc.o) (_calloc_r)
c:/devkitpro/devkitarm/bin/../lib/gcc/arm-none-eabi/4.7.1/../../../../arm-none-eabi/lib/thumb\libg.a(lib_a-ctype_.o)
                              c:/devkitPro/libnds/lib\libfat.a(directory.o) (__ctype_ptr__)
c:/devkitpro/devkitarm/bin/../lib/gcc/arm-none-eabi/4.7.1/../../../../arm-none-eabi/lib/thumb\libg.a(lib_a-fclose.o)
                              c:/Users/Derrick/Desktop/nflib_20120804/nflib/examples/graphics/backbuffer/nflib/lib\libnflib.a(nf_bitmapbg.o) (fclose)
c:/devkitpro/devkitarm/bin/../lib/gcc/arm-none-eabi/4.7.1/../../../../arm-none-eabi/lib/thumb\libg.a(lib_a-fflush.o)
                              c:/devkitpro/devkitarm/bin/../lib/gcc/arm-none-eabi/4.7.1/../../../../arm-none-eabi/lib/thumb\libg.a(lib_a-fclose.o) (_fflush_r)
c:/devkitpro/devkitarm/bin/../lib/gcc/arm-none-eabi/4.7.1/../../../../arm-none-eabi/lib/thumb\libg.a(lib_a-findfp.o)
                              c:/devkitpro/devkitarm/bin/../lib/gcc/arm-none-eabi/4.7.1/../../../../arm-none-eabi/lib/thumb\libg.a(lib_a-fclose.o) (__sinit)
c:/devkitpro/devkitarm/bin/../lib/gcc/arm-none-eabi/4.7.1/../../../../arm-none-eabi/lib/thumb\libg.a(lib_a-fopen.o)
                              c:/Users/Derrick/Desktop/nflib_20120804/nflib/examples/graphics/backbuffer/nflib/lib\libnflib.a(nf_bitmapbg.o) (fopen)
c:/devkitpro/devkitarm/bin/../lib/gcc/arm-none-eabi/4.7.1/../../../../arm-none-eabi/lib/thumb\libg.a(lib_a-fread.o)
                              c:/Users/Derrick/Desktop/nflib_20120804/nflib/examples/graphics/backbuffer/nflib/lib\libnflib.a(nf_bitmapbg.o) (fread)
c:/devkitpro/devkitarm/bin/../lib/gcc/arm-none-eabi/4.7.1/../../../../arm-none-eabi/lib/thumb\libg.a(lib_a-freer.o)
                              c:/devkitpro/devkitarm/bin/../lib/gcc/arm-none-eabi/4.7.1/../../../../arm-none-eabi/lib/thumb\libg.a(lib_a-fclose.o) (_free_r)
c:/devkitpro/devkitarm/bin/../lib/gcc/arm-none-eabi/4.7.1/../../../../arm-none-eabi/lib/thumb\libg.a(lib_a-fseek.o)
                              c:/devkitpro/devkitarm/bin/../lib/gcc/arm-none-eabi/4.7.1/../../../../arm-none-eabi/lib/thumb\libg.a(lib_a-fopen.o) (_fseek_r)
c:/devkitpro/devkitarm/bin/../lib/gcc/arm-none-eabi/4.7.1/../../../../arm-none-eabi/lib/thumb\libg.a(lib_a-ftell.o)
                              c:/Users/Derrick/Desktop/nflib_20120804/nflib/examples/graphics/backbuffer/nflib/lib\libnflib.a(nf_bitmapbg.o) (ftell)
c:/devkitpro/devkitarm/bin/../lib/gcc/arm-none-eabi/4.7.1/../../../../arm-none-eabi/lib/thumb\libg.a(lib_a-fwalk.o)
                              c:/devkitpro/devkitarm/bin/../lib/gcc/arm-none-eabi/4.7.1/../../../../arm-none-eabi/lib/thumb\libg.a(lib_a-findfp.o) (_fwalk)
c:/devkitpro/devkitarm/bin/../lib/gcc/arm-none-eabi/4.7.1/../../../../arm-none-eabi/lib/thumb\libg.a(lib_a-impure.o)
                              c:/devkitpro/devkitarm/bin/../lib/gcc/arm-none-eabi/4.7.1/../../../../arm-none-eabi/lib/thumb\libg.a(lib_a-fflush.o) (_global_impure_ptr)
c:/devkitpro/devkitarm/bin/../lib/gcc/arm-none-eabi/4.7.1/../../../../arm-none-eabi/lib/thumb\libg.a(lib_a-init.o)
                              c:/devkitpro/devkitarm/bin/../lib/gcc/arm-none-eabi/4.7.1/../../../../arm-none-eabi/lib/thumb/ds_arm9_crt0.o (__libc_init_array)
c:/devkitpro/devkitarm/bin/../lib/gcc/arm-none-eabi/4.7.1/../../../../arm-none-eabi/lib/thumb\libg.a(lib_a-iprintf.o)
                              c:/Users/Derrick/Desktop/nflib_20120804/nflib/examples/graphics/backbuffer/nflib/lib\libnflib.a(nf_basic.o) (iprintf)
c:/devkitpro/devkitarm/bin/../lib/gcc/arm-none-eabi/4.7.1/../../../../arm-none-eabi/lib/thumb\libg.a(lib_a-lcltime_r.o)
                              c:/devkitPro/libnds/lib\libfat.a(filetime.o) (localtime_r)
c:/devkitpro/devkitarm/bin/../lib/gcc/arm-none-eabi/4.7.1/../../../../arm-none-eabi/lib/thumb\libg.a(lib_a-locale.o)
                              c:/devkitPro/libnds/lib\libfat.a(directory.o) (__locale_mb_cur_max)
c:/devkitpro/devkitarm/bin/../lib/gcc/arm-none-eabi/4.7.1/../../../../arm-none-eabi/lib/thumb\libg.a(lib_a-makebuf.o)
                              c:/devkitpro/devkitarm/bin/../lib/gcc/arm-none-eabi/4.7.1/../../../../arm-none-eabi/lib/thumb\libg.a(lib_a-fseek.o) (__smakebuf_r)
c:/devkitpro/devkitarm/bin/../lib/gcc/arm-none-eabi/4.7.1/../../../../arm-none-eabi/lib/thumb\libg.a(lib_a-malloc.o)
                              c:/devkitPro/libnds/lib\libfat.a(libfat.o) (malloc)
c:/devkitpro/devkitarm/bin/../lib/gcc/arm-none-eabi/4.7.1/../../../../arm-none-eabi/lib/thumb\libg.a(lib_a-mallocr.o)
                              c:/devkitpro/devkitarm/bin/../lib/gcc/arm-none-eabi/4.7.1/../../../../arm-none-eabi/lib/thumb\libg.a(lib_a-callocr.o) (_malloc_r)
c:/devkitpro/devkitarm/bin/../lib/gcc/arm-none-eabi/4.7.1/../../../../arm-none-eabi/lib/thumb\libg.a(lib_a-mbrtowc.o)
                              c:/devkitPro/libnds/lib\libfat.a(directory.o) (mbrtowc)
c:/devkitpro/devkitarm/bin/../lib/gcc/arm-none-eabi/4.7.1/../../../../arm-none-eabi/lib/thumb\libg.a(lib_a-mbsrtowcs.o)
                              c:/devkitPro/libnds/lib\libfat.a(directory.o) (mbsrtowcs)
c:/devkitpro/devkitarm/bin/../lib/gcc/arm-none-eabi/4.7.1/../../../../arm-none-eabi/lib/thumb\libg.a(lib_a-mbtowc_r.o)
                              c:/devkitpro/devkitarm/bin/../lib/gcc/arm-none-eabi/4.7.1/../../../../arm-none-eabi/lib/thumb\libg.a(lib_a-locale.o) (__utf8_mbtowc)
c:/devkitpro/devkitarm/bin/../lib/gcc/arm-none-eabi/4.7.1/../../../../arm-none-eabi/lib/thumb\libg.a(lib_a-memcmp.o)
                              c:/devkitPro/libnds/lib\libfilesystem.a(nitrofs.o) (memcmp)
c:/devkitpro/devkitarm/bin/../lib/gcc/arm-none-eabi/4.7.1/../../../../arm-none-eabi/lib/thumb\libg.a(lib_a-memcpy-stub.o)
                              c:/Users/Derrick/Desktop/nflib_20120804/nflib/examples/graphics/backbuffer/nflib/lib\libnflib.a(nf_basic.o) (memcpy)
c:/devkitpro/devkitarm/bin/../lib/gcc/arm-none-eabi/4.7.1/../../../../arm-none-eabi/lib/thumb\libg.a(lib_a-memmove.o)
                              c:/devkitPro/libnds/lib\libfat.a(directory.o) (memmove)
c:/devkitpro/devkitarm/bin/../lib/gcc/arm-none-eabi/4.7.1/../../../../arm-none-eabi/lib/thumb\libg.a(lib_a-memset.o)
                              c:/Users/Derrick/Desktop/nflib_20120804/nflib/examples/graphics/backbuffer/nflib/lib\libnflib.a(nf_bitmapbg.o) (memset)
c:/devkitpro/devkitarm/bin/../lib/gcc/arm-none-eabi/4.7.1/../../../../arm-none-eabi/lib/thumb\libg.a(lib_a-mktime.o)
                              c:/devkitPro/libnds/lib\libfat.a(filetime.o) (mktime)
c:/devkitpro/devkitarm/bin/../lib/gcc/arm-none-eabi/4.7.1/../../../../arm-none-eabi/lib/thumb\libg.a(lib_a-mktm_r.o)
                              c:/devkitpro/devkitarm/bin/../lib/gcc/arm-none-eabi/4.7.1/../../../../arm-none-eabi/lib/thumb\libg.a(lib_a-mktime.o) (__tzcalc_limits)
c:/devkitpro/devkitarm/bin/../lib/gcc/arm-none-eabi/4.7.1/../../../../arm-none-eabi/lib/thumb\libg.a(lib_a-mlock.o)
                              c:/devkitpro/devkitarm/bin/../lib/gcc/arm-none-eabi/4.7.1/../../../../arm-none-eabi/lib/thumb\libg.a(lib_a-freer.o) (__malloc_lock)
c:/devkitpro/devkitarm/bin/../lib/gcc/arm-none-eabi/4.7.1/../../../../arm-none-eabi/lib/thumb\libg.a(lib_a-realloc.o)
                              c:/devkitPro/libnds/lib\libnds9.a(sprite_alloc.o) (realloc)
c:/devkitpro/devkitarm/bin/../lib/gcc/arm-none-eabi/4.7.1/../../../../arm-none-eabi/lib/thumb\libg.a(lib_a-reallocr.o)
                              c:/devkitpro/devkitarm/bin/../lib/gcc/arm-none-eabi/4.7.1/../../../../arm-none-eabi/lib/thumb\libg.a(lib_a-realloc.o) (_realloc_r)
c:/devkitpro/devkitarm/bin/../lib/gcc/arm-none-eabi/4.7.1/../../../../arm-none-eabi/lib/thumb\libg.a(lib_a-refill.o)
                              c:/devkitpro/devkitarm/bin/../lib/gcc/arm-none-eabi/4.7.1/../../../../arm-none-eabi/lib/thumb\libg.a(lib_a-fread.o) (__srefill_r)
c:/devkitpro/devkitarm/bin/../lib/gcc/arm-none-eabi/4.7.1/../../../../arm-none-eabi/lib/thumb\libg.a(lib_a-rewind.o)
                              c:/Users/Derrick/Desktop/nflib_20120804/nflib/examples/graphics/backbuffer/nflib/lib\libnflib.a(nf_bitmapbg.o) (rewind)
c:/devkitpro/devkitarm/bin/../lib/gcc/arm-none-eabi/4.7.1/../../../../arm-none-eabi/lib/thumb\libg.a(lib_a-setvbuf.o)
                              c:/devkitPro/libnds/lib\libnds9.a(console.o) (setvbuf)
c:/devkitpro/devkitarm/bin/../lib/gcc/arm-none-eabi/4.7.1/../../../../arm-none-eabi/lib/thumb\libg.a(lib_a-siscanf.o)
                              c:/devkitPro/libnds/lib\libnds9.a(console.o) (siscanf)
c:/devkitpro/devkitarm/bin/../lib/gcc/arm-none-eabi/4.7.1/../../../../arm-none-eabi/lib/thumb\libg.a(lib_a-sprintf.o)
                              c:/Users/Derrick/Desktop/nflib_20120804/nflib/examples/graphics/backbuffer/nflib/lib\libnflib.a(nf_2d.o) (sprintf)
c:/devkitpro/devkitarm/bin/../lib/gcc/arm-none-eabi/4.7.1/../../../../arm-none-eabi/lib/thumb\libg.a(lib_a-stdio.o)
                              c:/devkitpro/devkitarm/bin/../lib/gcc/arm-none-eabi/4.7.1/../../../../arm-none-eabi/lib/thumb\libg.a(lib_a-findfp.o) (__sread)
c:/devkitpro/devkitarm/bin/../lib/gcc/arm-none-eabi/4.7.1/../../../../arm-none-eabi/lib/thumb\libg.a(lib_a-stpcpy.o)
                              c:/devkitPro/libnds/lib\libfat.a(libfat.o) (stpcpy)
c:/devkitpro/devkitarm/bin/../lib/gcc/arm-none-eabi/4.7.1/../../../../arm-none-eabi/lib/thumb\libg.a(lib_a-strcasecmp.o)
                              c:/devkitpro/devkitarm/bin/../lib/gcc/arm-none-eabi/4.7.1/../../../../arm-none-eabi/lib/thumb\libg.a(lib_a-locale.o) (strcasecmp)
c:/devkitpro/devkitarm/bin/../lib/gcc/arm-none-eabi/4.7.1/../../../../arm-none-eabi/lib/thumb\libg.a(lib_a-strcat.o)
                              c:/devkitpro/devkitarm/bin/../lib/gcc/arm-none-eabi/4.7.1/../../../../arm-none-eabi/lib/thumb\libg.a(lib_a-locale.o) (strcat)
c:/devkitpro/devkitarm/bin/../lib/gcc/arm-none-eabi/4.7.1/../../../../arm-none-eabi/lib/thumb\libg.a(lib_a-strchr.o)
                              c:/devkitPro/libnds/lib\libfilesystem.a(nitrofs.o) (strchr)
c:/devkitpro/devkitarm/bin/../lib/gcc/arm-none-eabi/4.7.1/../../../../arm-none-eabi/lib/thumb\libg.a(lib_a-strcmp.o)
                              c:/Users/Derrick/Desktop/nflib_20120804/nflib/examples/graphics/backbuffer/nflib/lib\libnflib.a(nf_basic.o) (strcmp)
c:/devkitpro/devkitarm/bin/../lib/gcc/arm-none-eabi/4.7.1/../../../../arm-none-eabi/lib/thumb\libg.a(lib_a-strcpy.o)
                              c:/Users/Derrick/Desktop/nflib_20120804/nflib/examples/graphics/backbuffer/nflib/lib\libnflib.a(nf_basic.o) (strcpy)
c:/devkitpro/devkitarm/bin/../lib/gcc/arm-none-eabi/4.7.1/../../../../arm-none-eabi/lib/thumb\libg.a(lib_a-strlcpy.o)
                              c:/devkitpro/devkitarm/bin/../lib/gcc/arm-none-eabi/4.7.1/../../../../arm-none-eabi/lib/thumb\libg.a(lib_a-locale.o) (strlcpy)
c:/devkitpro/devkitarm/bin/../lib/gcc/arm-none-eabi/4.7.1/../../../../arm-none-eabi/lib/thumb\libg.a(lib_a-strlen.o)
                              c:/devkitPro/libnds/lib\libfilesystem.a(nitrofs.o) (strlen)
c:/devkitpro/devkitarm/bin/../lib/gcc/arm-none-eabi/4.7.1/../../../../arm-none-eabi/lib/thumb\libg.a(lib_a-strncasecmp.o)
                              c:/devkitPro/libnds/lib\libfat.a(libfat.o) (strncasecmp)
c:/devkitpro/devkitarm/bin/../lib/gcc/arm-none-eabi/4.7.1/../../../../arm-none-eabi/lib/thumb\libg.a(lib_a-strncmp.o)
                              c:/devkitPro/libnds/lib\libfilesystem.a(nitrofs.o) (strncmp)
c:/devkitpro/devkitarm/bin/../lib/gcc/arm-none-eabi/4.7.1/../../../../arm-none-eabi/lib/thumb\libg.a(lib_a-strncpy.o)
                              c:/devkitPro/libnds/lib\libfilesystem.a(nitrofs.o) (strncpy)
c:/devkitpro/devkitarm/bin/../lib/gcc/arm-none-eabi/4.7.1/../../../../arm-none-eabi/lib/thumb\libg.a(lib_a-strnlen.o)
                              c:/devkitPro/libnds/lib\libfat.a(directory.o) (strnlen)
c:/devkitpro/devkitarm/bin/../lib/gcc/arm-none-eabi/4.7.1/../../../../arm-none-eabi/lib/thumb\libg.a(lib_a-strpbrk.o)
                              c:/devkitPro/libnds/lib\libfat.a(directory.o) (strpbrk)
c:/devkitpro/devkitarm/bin/../lib/gcc/arm-none-eabi/4.7.1/../../../../arm-none-eabi/lib/thumb\libg.a(lib_a-strrchr.o)
                              c:/devkitPro/libnds/lib\libfat.a(libfat.o) (strrchr)
c:/devkitpro/devkitarm/bin/../lib/gcc/arm-none-eabi/4.7.1/../../../../arm-none-eabi/lib/thumb\libg.a(lib_a-strtol.o)
                              c:/devkitpro/devkitarm/bin/../lib/gcc/arm-none-eabi/4.7.1/../../../../arm-none-eabi/lib/thumb\libg.a(lib_a-locale.o) (_strtol_r)
c:/devkitpro/devkitarm/bin/../lib/gcc/arm-none-eabi/4.7.1/../../../../arm-none-eabi/lib/thumb\libg.a(lib_a-svfiscanf.o)
                              c:/devkitpro/devkitarm/bin/../lib/gcc/arm-none-eabi/4.7.1/../../../../arm-none-eabi/lib/thumb\libg.a(lib_a-siscanf.o) (__ssvfiscanf_r)
c:/devkitpro/devkitarm/bin/../lib/gcc/arm-none-eabi/4.7.1/../../../../arm-none-eabi/lib/thumb\libg.a(lib_a-svfprintf.o)
                              c:/devkitpro/devkitarm/bin/../lib/gcc/arm-none-eabi/4.7.1/../../../../arm-none-eabi/lib/thumb\libg.a(lib_a-sprintf.o) (_svfprintf_r)
c:/devkitpro/devkitarm/bin/../lib/gcc/arm-none-eabi/4.7.1/../../../../arm-none-eabi/lib/thumb\libg.a(lib_a-sysclose.o)
                              c:/devkitPro/libnds/lib\libnds9.a(dldi.o) (close)
c:/devkitpro/devkitarm/bin/../lib/gcc/arm-none-eabi/4.7.1/../../../../arm-none-eabi/lib/thumb\libg.a(lib_a-syslseek.o)
                              c:/devkitPro/libnds/lib\libfilesystem.a(nitrofs.o) (lseek)
c:/devkitpro/devkitarm/bin/../lib/gcc/arm-none-eabi/4.7.1/../../../../arm-none-eabi/lib/thumb\libg.a(lib_a-sysopen.o)
                              c:/devkitPro/libnds/lib\libfilesystem.a(nitrofs.o) (open)
c:/devkitpro/devkitarm/bin/../lib/gcc/arm-none-eabi/4.7.1/../../../../arm-none-eabi/lib/thumb\libg.a(lib_a-sysread.o)
                              c:/devkitPro/libnds/lib\libfilesystem.a(nitrofs.o) (read)
c:/devkitpro/devkitarm/bin/../lib/gcc/arm-none-eabi/4.7.1/../../../../arm-none-eabi/lib/thumb\libg.a(lib_a-time.o)
                              c:/devkitPro/libnds/lib\libfat.a(filetime.o) (time)
c:/devkitpro/devkitarm/bin/../lib/gcc/arm-none-eabi/4.7.1/../../../../arm-none-eabi/lib/thumb\libg.a(lib_a-towlower.o)
                              c:/devkitPro/libnds/lib\libfat.a(directory.o) (towlower)
c:/devkitpro/devkitarm/bin/../lib/gcc/arm-none-eabi/4.7.1/../../../../arm-none-eabi/lib/thumb\libg.a(lib_a-towupper.o)
                              c:/devkitPro/libnds/lib\libfat.a(directory.o) (towupper)
c:/devkitpro/devkitarm/bin/../lib/gcc/arm-none-eabi/4.7.1/../../../../arm-none-eabi/lib/thumb\libg.a(lib_a-tzlock.o)
                              c:/devkitpro/devkitarm/bin/../lib/gcc/arm-none-eabi/4.7.1/../../../../arm-none-eabi/lib/thumb\libg.a(lib_a-mktime.o) (__tz_lock)
c:/devkitpro/devkitarm/bin/../lib/gcc/arm-none-eabi/4.7.1/../../../../arm-none-eabi/lib/thumb\libg.a(lib_a-tzvars.o)
                              c:/devkitpro/devkitarm/bin/../lib/gcc/arm-none-eabi/4.7.1/../../../../arm-none-eabi/lib/thumb\libg.a(lib_a-mktime.o) (_daylight)
c:/devkitpro/devkitarm/bin/../lib/gcc/arm-none-eabi/4.7.1/../../../../arm-none-eabi/lib/thumb\libg.a(lib_a-ungetc.o)
                              c:/devkitpro/devkitarm/bin/../lib/gcc/arm-none-eabi/4.7.1/../../../../arm-none-eabi/lib/thumb\libg.a(lib_a-svfiscanf.o) (__submore)
c:/devkitpro/devkitarm/bin/../lib/gcc/arm-none-eabi/4.7.1/../../../../arm-none-eabi/lib/thumb\libg.a(lib_a-vfiprintf.o)
                              c:/devkitpro/devkitarm/bin/../lib/gcc/arm-none-eabi/4.7.1/../../../../arm-none-eabi/lib/thumb\libg.a(lib_a-iprintf.o) (_vfiprintf_r)
c:/devkitpro/devkitarm/bin/../lib/gcc/arm-none-eabi/4.7.1/../../../../arm-none-eabi/lib/thumb\libg.a(lib_a-wcrtomb.o)
                              c:/devkitpro/devkitarm/bin/../lib/gcc/arm-none-eabi/4.7.1/../../../../arm-none-eabi/lib/thumb\libg.a(lib_a-svfprintf.o) (_wcrtomb_r)
c:/devkitpro/devkitarm/bin/../lib/gcc/arm-none-eabi/4.7.1/../../../../arm-none-eabi/lib/thumb\libg.a(lib_a-wcsrtombs.o)
                              c:/devkitpro/devkitarm/bin/../lib/gcc/arm-none-eabi/4.7.1/../../../../arm-none-eabi/lib/thumb\libg.a(lib_a-svfprintf.o) (_wcsrtombs_r)
c:/devkitpro/devkitarm/bin/../lib/gcc/arm-none-eabi/4.7.1/../../../../arm-none-eabi/lib/thumb\libg.a(lib_a-wctob.o)
                              c:/devkitPro/libnds/lib\libfat.a(directory.o) (wctob)
c:/devkitpro/devkitarm/bin/../lib/gcc/arm-none-eabi/4.7.1/../../../../arm-none-eabi/lib/thumb\libg.a(lib_a-wctomb_r.o)
                              c:/devkitpro/devkitarm/bin/../lib/gcc/arm-none-eabi/4.7.1/../../../../arm-none-eabi/lib/thumb\libg.a(lib_a-locale.o) (__utf8_wctomb)
c:/devkitpro/devkitarm/bin/../lib/gcc/arm-none-eabi/4.7.1/../../../../arm-none-eabi/lib/thumb\libg.a(lib_a-wsetup.o)
                              c:/devkitpro/devkitarm/bin/../lib/gcc/arm-none-eabi/4.7.1/../../../../arm-none-eabi/lib/thumb\libg.a(lib_a-vfiprintf.o) (__swsetup_r)
c:/devkitpro/devkitarm/bin/../lib/gcc/arm-none-eabi/4.7.1/../../../../arm-none-eabi/lib/thumb\libg.a(lib_a-div.o)
                              c:/devkitpro/devkitarm/bin/../lib/gcc/arm-none-eabi/4.7.1/../../../../arm-none-eabi/lib/thumb\libg.a(lib_a-mktime.o) (div)
c:/devkitpro/devkitarm/bin/../lib/gcc/arm-none-eabi/4.7.1/../../../../arm-none-eabi/lib/thumb\libg.a(lib_a-dtoa.o)
                              c:/devkitpro/devkitarm/bin/../lib/gcc/arm-none-eabi/4.7.1/../../../../arm-none-eabi/lib/thumb\libg.a(lib_a-svfprintf.o) (_dtoa_r)
c:/devkitpro/devkitarm/bin/../lib/gcc/arm-none-eabi/4.7.1/../../../../arm-none-eabi/lib/thumb\libg.a(lib_a-flags.o)
                              c:/devkitpro/devkitarm/bin/../lib/gcc/arm-none-eabi/4.7.1/../../../../arm-none-eabi/lib/thumb\libg.a(lib_a-fopen.o) (__sflags)
c:/devkitpro/devkitarm/bin/../lib/gcc/arm-none-eabi/4.7.1/../../../../arm-none-eabi/lib/thumb\libg.a(lib_a-fputwc.o)
                              c:/devkitpro/devkitarm/bin/../lib/gcc/arm-none-eabi/4.7.1/../../../../arm-none-eabi/lib/thumb\libg.a(lib_a-vfiprintf.o) (_fputwc_r)
c:/devkitpro/devkitarm/bin/../lib/gcc/arm-none-eabi/4.7.1/../../../../arm-none-eabi/lib/thumb\libg.a(lib_a-fvwrite.o)
                              c:/devkitpro/devkitarm/bin/../lib/gcc/arm-none-eabi/4.7.1/../../../../arm-none-eabi/lib/thumb\libg.a(lib_a-vfiprintf.o) (__sfvwrite_r)
c:/devkitpro/devkitarm/bin/../lib/gcc/arm-none-eabi/4.7.1/../../../../arm-none-eabi/lib/thumb\libg.a(lib_a-getenv_r.o)
                              c:/devkitpro/devkitarm/bin/../lib/gcc/arm-none-eabi/4.7.1/../../../../arm-none-eabi/lib/thumb\libg.a(lib_a-locale.o) (_getenv_r)
c:/devkitpro/devkitarm/bin/../lib/gcc/arm-none-eabi/4.7.1/../../../../arm-none-eabi/lib/thumb\libg.a(lib_a-gettzinfo.o)
                              c:/devkitpro/devkitarm/bin/../lib/gcc/arm-none-eabi/4.7.1/../../../../arm-none-eabi/lib/thumb\libg.a(lib_a-mktime.o) (__gettzinfo)
c:/devkitpro/devkitarm/bin/../lib/gcc/arm-none-eabi/4.7.1/../../../../arm-none-eabi/lib/thumb\libg.a(lib_a-iswspace.o)
                              c:/devkitpro/devkitarm/bin/../lib/gcc/arm-none-eabi/4.7.1/../../../../arm-none-eabi/lib/thumb\libg.a(lib_a-svfiscanf.o) (iswspace)
c:/devkitpro/devkitarm/bin/../lib/gcc/arm-none-eabi/4.7.1/../../../../arm-none-eabi/lib/thumb\libg.a(lib_a-jp2uc.o)
                              c:/devkitpro/devkitarm/bin/../lib/gcc/arm-none-eabi/4.7.1/../../../../arm-none-eabi/lib/thumb\libg.a(lib_a-towlower.o) (_jp2uc)
c:/devkitpro/devkitarm/bin/../lib/gcc/arm-none-eabi/4.7.1/../../../../arm-none-eabi/lib/thumb\libg.a(lib_a-mbsnrtowcs.o)
                              c:/devkitpro/devkitarm/bin/../lib/gcc/arm-none-eabi/4.7.1/../../../../arm-none-eabi/lib/thumb\libg.a(lib_a-mbsrtowcs.o) (_mbsnrtowcs_r)
c:/devkitpro/devkitarm/bin/../lib/gcc/arm-none-eabi/4.7.1/../../../../arm-none-eabi/lib/thumb\libg.a(lib_a-memchr-stub.o)
                              c:/devkitpro/devkitarm/bin/../lib/gcc/arm-none-eabi/4.7.1/../../../../arm-none-eabi/lib/thumb\libg.a(lib_a-svfprintf.o) (memchr)
c:/devkitpro/devkitarm/bin/../lib/gcc/arm-none-eabi/4.7.1/../../../../arm-none-eabi/lib/thumb\libg.a(lib_a-mprec.o)
                              c:/devkitpro/devkitarm/bin/../lib/gcc/arm-none-eabi/4.7.1/../../../../arm-none-eabi/lib/thumb\libg.a(lib_a-dtoa.o) (_Balloc)
c:/devkitpro/devkitarm/bin/../lib/gcc/arm-none-eabi/4.7.1/../../../../arm-none-eabi/lib/thumb\libg.a(lib_a-sccl.o)
                              c:/devkitpro/devkitarm/bin/../lib/gcc/arm-none-eabi/4.7.1/../../../../arm-none-eabi/lib/thumb\libg.a(lib_a-svfiscanf.o) (__sccl)
c:/devkitpro/devkitarm/bin/../lib/gcc/arm-none-eabi/4.7.1/../../../../arm-none-eabi/lib/thumb\libg.a(lib_a-s_fpclassify.o)
                              c:/devkitpro/devkitarm/bin/../lib/gcc/arm-none-eabi/4.7.1/../../../../arm-none-eabi/lib/thumb\libg.a(lib_a-svfprintf.o) (__fpclassifyd)
c:/devkitpro/devkitarm/bin/../lib/gcc/arm-none-eabi/4.7.1/../../../../arm-none-eabi/lib/thumb\libg.a(lib_a-strtoll_r.o)
                              c:/devkitpro/devkitarm/bin/../lib/gcc/arm-none-eabi/4.7.1/../../../../arm-none-eabi/lib/thumb\libg.a(lib_a-svfiscanf.o) (_strtoll_r)
c:/devkitpro/devkitarm/bin/../lib/gcc/arm-none-eabi/4.7.1/../../../../arm-none-eabi/lib/thumb\libg.a(lib_a-strtoull_r.o)
                              c:/devkitpro/devkitarm/bin/../lib/gcc/arm-none-eabi/4.7.1/../../../../arm-none-eabi/lib/thumb\libg.a(lib_a-svfiscanf.o) (_strtoull_r)
c:/devkitpro/devkitarm/bin/../lib/gcc/arm-none-eabi/4.7.1/../../../../arm-none-eabi/lib/thumb\libg.a(lib_a-strtoul.o)
                              c:/devkitpro/devkitarm/bin/../lib/gcc/arm-none-eabi/4.7.1/../../../../arm-none-eabi/lib/thumb\libg.a(lib_a-svfiscanf.o) (_strtoul_r)
c:/devkitpro/devkitarm/bin/../lib/gcc/arm-none-eabi/4.7.1/../../../../arm-none-eabi/lib/thumb\libg.a(lib_a-svfiprintf.o)
                              c:/devkitpro/devkitarm/bin/../lib/gcc/arm-none-eabi/4.7.1/../../../../arm-none-eabi/lib/thumb\libg.a(lib_a-svfprintf.o) (__ssprint_r)
c:/devkitpro/devkitarm/bin/../lib/gcc/arm-none-eabi/4.7.1/../../../../arm-none-eabi/lib/thumb\libg.a(lib_a-wbuf.o)
                              c:/devkitpro/devkitarm/bin/../lib/gcc/arm-none-eabi/4.7.1/../../../../arm-none-eabi/lib/thumb\libg.a(lib_a-fputwc.o) (__swbuf_r)
c:/devkitpro/devkitarm/bin/../lib/gcc/arm-none-eabi/4.7.1/../../../../arm-none-eabi/lib/thumb\libg.a(lib_a-wcsnrtombs.o)
                              c:/devkitpro/devkitarm/bin/../lib/gcc/arm-none-eabi/4.7.1/../../../../arm-none-eabi/lib/thumb\libg.a(lib_a-wcsrtombs.o) (_wcsnrtombs_r)
c:/devkitpro/devkitarm/bin/../lib/gcc/arm-none-eabi/4.7.1/../../../../arm-none-eabi/lib/thumb\libg.a(lib_a-environ.o)
                              c:/devkitpro/devkitarm/bin/../lib/gcc/arm-none-eabi/4.7.1/../../../../arm-none-eabi/lib/thumb\libg.a(lib_a-getenv_r.o) (environ)
c:/devkitpro/devkitarm/bin/../lib/gcc/arm-none-eabi/4.7.1/../../../../arm-none-eabi/lib/thumb\libg.a(lib_a-envlock.o)
                              c:/devkitpro/devkitarm/bin/../lib/gcc/arm-none-eabi/4.7.1/../../../../arm-none-eabi/lib/thumb\libg.a(lib_a-getenv_r.o) (__env_lock)
c:/devkitpro/devkitarm/bin/../lib/gcc/arm-none-eabi/4.7.1/../../../../arm-none-eabi/lib/thumb\libsysbase.a(iosupport.o)
                              c:/devkitPro/libnds/lib\libfat.a(libfat.o) (FindDevice)
c:/devkitpro/devkitarm/bin/../lib/gcc/arm-none-eabi/4.7.1/../../../../arm-none-eabi/lib/thumb\libsysbase.a(close.o)
                              c:/devkitpro/devkitarm/bin/../lib/gcc/arm-none-eabi/4.7.1/../../../../arm-none-eabi/lib/thumb\libg.a(lib_a-stdio.o) (_close_r)
c:/devkitpro/devkitarm/bin/../lib/gcc/arm-none-eabi/4.7.1/../../../../arm-none-eabi/lib/thumb\libsysbase.a(fstat.o)
                              c:/devkitpro/devkitarm/bin/../lib/gcc/arm-none-eabi/4.7.1/../../../../arm-none-eabi/lib/thumb\libg.a(lib_a-fseek.o) (_fstat_r)
c:/devkitpro/devkitarm/bin/../lib/gcc/arm-none-eabi/4.7.1/../../../../arm-none-eabi/lib/thumb\libsysbase.a(isatty.o)
                              c:/devkitpro/devkitarm/bin/../lib/gcc/arm-none-eabi/4.7.1/../../../../arm-none-eabi/lib/thumb\libg.a(lib_a-makebuf.o) (_isatty_r)
c:/devkitpro/devkitarm/bin/../lib/gcc/arm-none-eabi/4.7.1/../../../../arm-none-eabi/lib/thumb\libsysbase.a(lseek.o)
                              c:/devkitpro/devkitarm/bin/../lib/gcc/arm-none-eabi/4.7.1/../../../../arm-none-eabi/lib/thumb\libg.a(lib_a-stdio.o) (_lseek_r)
c:/devkitpro/devkitarm/bin/../lib/gcc/arm-none-eabi/4.7.1/../../../../arm-none-eabi/lib/thumb\libsysbase.a(open.o)
                              c:/devkitpro/devkitarm/bin/../lib/gcc/arm-none-eabi/4.7.1/../../../../arm-none-eabi/lib/thumb\libg.a(lib_a-fopen.o) (_open_r)
c:/devkitpro/devkitarm/bin/../lib/gcc/arm-none-eabi/4.7.1/../../../../arm-none-eabi/lib/thumb\libsysbase.a(read.o)
                              c:/devkitpro/devkitarm/bin/../lib/gcc/arm-none-eabi/4.7.1/../../../../arm-none-eabi/lib/thumb\libg.a(lib_a-stdio.o) (_read_r)
c:/devkitpro/devkitarm/bin/../lib/gcc/arm-none-eabi/4.7.1/../../../../arm-none-eabi/lib/thumb\libsysbase.a(sbrk.o)
                              c:/devkitpro/devkitarm/bin/../lib/gcc/arm-none-eabi/4.7.1/../../../../arm-none-eabi/lib/thumb\libg.a(lib_a-freer.o) (_sbrk_r)
c:/devkitpro/devkitarm/bin/../lib/gcc/arm-none-eabi/4.7.1/../../../../arm-none-eabi/lib/thumb\libsysbase.a(times.o)
                              c:/devkitpro/devkitarm/bin/../lib/gcc/arm-none-eabi/4.7.1/../../../../arm-none-eabi/lib/thumb\libg.a(lib_a-time.o) (_gettimeofday_r)
c:/devkitpro/devkitarm/bin/../lib/gcc/arm-none-eabi/4.7.1/../../../../arm-none-eabi/lib/thumb\libsysbase.a(write.o)
                              c:/devkitpro/devkitarm/bin/../lib/gcc/arm-none-eabi/4.7.1/../../../../arm-none-eabi/lib/thumb\libg.a(lib_a-stdio.o) (_write_r)
c:/devkitpro/devkitarm/bin/../lib/gcc/arm-none-eabi/4.7.1/../../../../arm-none-eabi/lib/thumb\libsysbase.a(malloc_vars.o)
                              c:/devkitpro/devkitarm/bin/../lib/gcc/arm-none-eabi/4.7.1/../../../../arm-none-eabi/lib/thumb/ds_arm9_crt0.o (fake_heap_start)
c:/devkitpro/devkitarm/bin/../lib/gcc/arm-none-eabi/4.7.1/../../../../arm-none-eabi/lib/thumb\libsysbase.a(chdir.o)
                              c:/Users/Derrick/Desktop/nflib_20120804/nflib/examples/graphics/backbuffer/nflib/lib\libnflib.a(nf_basic.o) (chdir)
c:/devkitpro/devkitarm/bin/../lib/gcc/arm-none-eabi/4.7.1/../../../../arm-none-eabi/lib/thumb\libsysbase.a(build_argv.o)
                              c:/devkitpro/devkitarm/bin/../lib/gcc/arm-none-eabi/4.7.1/../../../../arm-none-eabi/lib/thumb/ds_arm9_crt0.o (build_argv)
c:/devkitpro/devkitarm/bin/../lib/gcc/arm-none-eabi/4.7.1/../../../../arm-none-eabi/lib/thumb\libsysbase.a(syscall_support.o)
                              c:/devkitPro/libnds/lib\libnds9.a(initSystem.o) (__syscalls)
c:/devkitpro/devkitarm/bin/../lib/gcc/arm-none-eabi/4.7.1/../../../../arm-none-eabi/lib/thumb\libsysbase.a(handle_manager.o)
                              c:/devkitpro/devkitarm/bin/../lib/gcc/arm-none-eabi/4.7.1/../../../../arm-none-eabi/lib/thumb\libsysbase.a(close.o) (__release_handle)
c:/devkitpro/devkitarm/bin/../lib/gcc/arm-none-eabi/4.7.1/thumb\libgcc.a(_arm_addsubdf3.o)
                              c:/devkitpro/devkitarm/bin/../lib/gcc/arm-none-eabi/4.7.1/../../../../arm-none-eabi/lib/thumb\libg.a(lib_a-dtoa.o) (__aeabi_dsub)
c:/devkitpro/devkitarm/bin/../lib/gcc/arm-none-eabi/4.7.1/thumb\libgcc.a(_arm_muldivdf3.o)
                              c:/devkitpro/devkitarm/bin/../lib/gcc/arm-none-eabi/4.7.1/../../../../arm-none-eabi/lib/thumb\libg.a(lib_a-dtoa.o) (__aeabi_dmul)
c:/devkitpro/devkitarm/bin/../lib/gcc/arm-none-eabi/4.7.1/thumb\libgcc.a(_arm_cmpdf2.o)
                              c:/devkitpro/devkitarm/bin/../lib/gcc/arm-none-eabi/4.7.1/../../../../arm-none-eabi/lib/thumb\libg.a(lib_a-svfprintf.o) (__aeabi_dcmpeq)
c:/devkitpro/devkitarm/bin/../lib/gcc/arm-none-eabi/4.7.1/thumb\libgcc.a(_arm_fixdfsi.o)
                              c:/devkitpro/devkitarm/bin/../lib/gcc/arm-none-eabi/4.7.1/../../../../arm-none-eabi/lib/thumb\libg.a(lib_a-dtoa.o) (__aeabi_d2iz)
c:/devkitpro/devkitarm/bin/../lib/gcc/arm-none-eabi/4.7.1/thumb\libgcc.a(_aeabi_uldivmod.o)
                              c:/devkitpro/devkitarm/bin/../lib/gcc/arm-none-eabi/4.7.1/../../../../arm-none-eabi/lib/thumb\libg.a(lib_a-svfprintf.o) (__aeabi_uldivmod)
c:/devkitpro/devkitarm/bin/../lib/gcc/arm-none-eabi/4.7.1/thumb\libgcc.a(bpabi.o)
                              c:/devkitpro/devkitarm/bin/../lib/gcc/arm-none-eabi/4.7.1/thumb\libgcc.a(_aeabi_uldivmod.o) (__gnu_uldivmod_helper)
c:/devkitpro/devkitarm/bin/../lib/gcc/arm-none-eabi/4.7.1/thumb\libgcc.a(_divdi3.o)
                              c:/devkitpro/devkitarm/bin/../lib/gcc/arm-none-eabi/4.7.1/thumb\libgcc.a(bpabi.o) (__divdi3)
c:/devkitpro/devkitarm/bin/../lib/gcc/arm-none-eabi/4.7.1/thumb\libgcc.a(_udivdi3.o)
                              c:/devkitpro/devkitarm/bin/../lib/gcc/arm-none-eabi/4.7.1/thumb\libgcc.a(bpabi.o) (__udivdi3)
c:/devkitpro/devkitarm/bin/../lib/gcc/arm-none-eabi/4.7.1/thumb\libgcc.a(_clzsi2.o)
                              c:/devkitpro/devkitarm/bin/../lib/gcc/arm-none-eabi/4.7.1/thumb\libgcc.a(_divdi3.o) (__clzsi2)
c:/devkitpro/devkitarm/bin/../lib/gcc/arm-none-eabi/4.7.1/../../../../arm-none-eabi/lib/thumb\libg.a(lib_a-errno.o)
                              c:/devkitpro/devkitarm/bin/../lib/gcc/arm-none-eabi/4.7.1/../../../../arm-none-eabi/lib/thumb\libsysbase.a(times.o) (__errno)

Allocating common symbols
Common symbol       size              file

currentCopy         0x5c              c:/devkitPro/libnds/lib\libnds9.a(console.o)
NF_BUFFER_BGTILES   0x100             c:/Users/Derrick/Desktop/nflib_20120804/nflib/examples/graphics/backbuffer/nflib/lib\libnflib.a(nf_tiledbg.o)
NF_TILEBLOCKS       0x10              c:/Users/Derrick/Desktop/nflib_20120804/nflib/examples/graphics/backbuffer/nflib/lib\libnflib.a(nf_tiledbg.o)
NF_BUFFER_BGMAP     0x100             c:/Users/Derrick/Desktop/nflib_20120804/nflib/examples/graphics/backbuffer/nflib/lib\libnflib.a(nf_tiledbg.o)
NF_SPR256GFX        0xc00             c:/Users/Derrick/Desktop/nflib_20120804/nflib/examples/graphics/backbuffer/nflib/lib\libnflib.a(nf_sprite256.o)
fifo_datamsg_data   0x40              c:/devkitPro/libnds/lib\libnds9.a(fifosystem.o)
__dsimode           0x1               c:/devkitPro/libnds/lib\libnds9.a(initSystem.o)
NF_BANKS_TILES      0x2               c:/Users/Derrick/Desktop/nflib_20120804/nflib/examples/graphics/backbuffer/nflib/lib\libnflib.a(nf_tiledbg.o)
bgState             0x140             c:/devkitPro/libnds/lib\libnds9.a(background.o)
NF_8BITS_BACKBUFFER
                    0x10              c:/Users/Derrick/Desktop/nflib_20120804/nflib/examples/graphics/backbuffer/nflib/lib\libnflib.a(nf_bitmapbg.o)
fifo_buffer         0x800             c:/devkitPro/libnds/lib\libnds9.a(fifosystem.o)
NF_BUFFER_SPR256PAL
                    0x100             c:/Users/Derrick/Desktop/nflib_20120804/nflib/examples/graphics/backbuffer/nflib/lib\libnflib.a(nf_sprite256.o)
bgIsTextLut         0x8               c:/devkitPro/libnds/lib\libnds9.a(background.o)
fifo_value32_func   0x40              c:/devkitPro/libnds/lib\libnds9.a(fifosystem.o)
fifo_address_func   0x40              c:/devkitPro/libnds/lib\libnds9.a(fifosystem.o)
NF_BUFFER_SPR256GFX
                    0x400             c:/Users/Derrick/Desktop/nflib_20120804/nflib/examples/graphics/backbuffer/nflib/lib\libnflib.a(nf_sprite256.o)
NF_16BITS_BACKBUFFER
                    0x8               c:/Users/Derrick/Desktop/nflib_20120804/nflib/examples/graphics/backbuffer/nflib/lib\libnflib.a(nf_bitmapbg.o)
NF_SPRITEOAM        0x2400            c:/Users/Derrick/Desktop/nflib_20120804/nflib/examples/graphics/backbuffer/nflib/lib\libnflib.a(nf_sprite256.o)
NF_SPR256VRAM       0x1400            c:/Users/Derrick/Desktop/nflib_20120804/nflib/examples/graphics/backbuffer/nflib/lib\libnflib.a(nf_sprite256.o)
NF_ROOTFOLDER       0x20              c:/Users/Derrick/Desktop/nflib_20120804/nflib/examples/graphics/backbuffer/nflib/lib\libnflib.a(nf_basic.o)
fifo_value32_data   0x40              c:/devkitPro/libnds/lib\libnds9.a(fifosystem.o)
NF_SPRVRAM          0x838             c:/Users/Derrick/Desktop/nflib_20120804/nflib/examples/graphics/backbuffer/nflib/lib\libnflib.a(nf_sprite256.o)
NF_BANKS_MAPS       0x2               c:/Users/Derrick/Desktop/nflib_20120804/nflib/examples/graphics/backbuffer/nflib/lib\libnflib.a(nf_tiledbg.o)
fifo_value32_queue  0x40              c:/devkitPro/libnds/lib\libnds9.a(fifosystem.o)
fifo_data_queue     0x40              c:/devkitPro/libnds/lib\libnds9.a(fifosystem.o)
OamMemorySub        0x400             c:/devkitPro/libnds/lib\libnds9.a(sprite.o)
NF_SPRPALSLOT       0x40              c:/Users/Derrick/Desktop/nflib_20120804/nflib/examples/graphics/backbuffer/nflib/lib\libnflib.a(nf_sprite256.o)
NF_EXBGPAL          0x600             c:/Users/Derrick/Desktop/nflib_20120804/nflib/examples/graphics/backbuffer/nflib/lib\libnflib.a(nf_tiledbg.o)
NF_TILEDBG_LAYERS   0x90              c:/Users/Derrick/Desktop/nflib_20120804/nflib/examples/graphics/backbuffer/nflib/lib\libnflib.a(nf_tiledbg.o)
NF_MAPBLOCKS        0x20              c:/Users/Derrick/Desktop/nflib_20120804/nflib/examples/graphics/backbuffer/nflib/lib\libnflib.a(nf_tiledbg.o)
NF_SPR256PAL        0x200             c:/Users/Derrick/Desktop/nflib_20120804/nflib/examples/graphics/backbuffer/nflib/lib\libnflib.a(nf_sprite256.o)
NF_BUFFER_BGPAL     0x100             c:/Users/Derrick/Desktop/nflib_20120804/nflib/examples/graphics/backbuffer/nflib/lib\libnflib.a(nf_tiledbg.o)
NF_BG8B             0x140             c:/Users/Derrick/Desktop/nflib_20120804/nflib/examples/graphics/backbuffer/nflib/lib\libnflib.a(nf_bitmapbg.o)
punixTime           0x4               c:/devkitpro/devkitarm/bin/../lib/gcc/arm-none-eabi/4.7.1/../../../../arm-none-eabi/lib/thumb\libsysbase.a(times.o)
NF_TILEDBG          0xd00             c:/Users/Derrick/Desktop/nflib_20120804/nflib/examples/graphics/backbuffer/nflib/lib\libnflib.a(nf_tiledbg.o)
fifo_address_data   0x40              c:/devkitPro/libnds/lib\libnds9.a(fifosystem.o)
NF_BG16B            0x100             c:/Users/Derrick/Desktop/nflib_20120804/nflib/examples/graphics/backbuffer/nflib/lib\libnflib.a(nf_bitmapbg.o)
fifo_datamsg_func   0x40              c:/devkitPro/libnds/lib\libnds9.a(fifosystem.o)
OamMemory           0x400             c:/devkitPro/libnds/lib\libnds9.a(sprite.o)
fifo_address_queue  0x40              c:/devkitPro/libnds/lib\libnds9.a(fifosystem.o)

Memory Configuration

Name             Origin             Length             Attributes
rom              0x08000000         0x02000000
ewram            0x02000000         0x003ff000
dtcm             0x0b000000         0x00004000
vectors          0x01000000         0x00000100
itcm             0x01000100         0x00007f00
*default*        0x00000000         0xffffffff

Linker script and memory map

                0x01000000                __vectors_start = ORIGIN (vectors)
                0x01000100                __itcm_start = ORIGIN (itcm)
                0x023ff000                __ewram_end = (ORIGIN (ewram) + 0x3ff000)
                0x023ff000                __eheap_end = (ORIGIN (ewram) + 0x3ff000)
                0x0b000000                __dtcm_start = ORIGIN (dtcm)
                0x0b004000                __dtcm_top = (ORIGIN (dtcm) + 0x4000)
                0x0b003ff8                __irq_flags = (__dtcm_top - 0x8)
                0x0b003ffc                __irq_vector = (__dtcm_top - 0x4)
                0x0b003f00                __sp_svc = (__dtcm_top - 0x100)
                0x0b003e00                __sp_irq = (__sp_svc - 0x100)
                0x0b003d00                __sp_usr = (__sp_irq - 0x100)

.init           0x02000000      0x23c
                0x02000000                __text_start = .
 *(.init)
 .init          0x02000000      0x230 c:/devkitpro/devkitarm/bin/../lib/gcc/arm-none-eabi/4.7.1/../../../../arm-none-eabi/lib/thumb/ds_arm9_crt0.o
                0x02000000                _start
 .init          0x02000230        0x4 c:/devkitpro/devkitarm/bin/../lib/gcc/arm-none-eabi/4.7.1/thumb/crti.o
                0x02000230                _init
 .init          0x02000234        0x8 c:/devkitpro/devkitarm/bin/../lib/gcc/arm-none-eabi/4.7.1/thumb/crtn.o
                0x0200023c                . = ALIGN (0x4)

.plt
 *(.plt)

.text           0x02000240    0x22d08
 *(EXCLUDE_FILE(*.itcm*) .text)
 .text          0x02000240        0x0 c:/devkitpro/devkitarm/bin/../lib/gcc/arm-none-eabi/4.7.1/../../../../arm-none-eabi/lib/thumb/ds_arm9_crt0.o
 .text          0x02000240        0x0 c:/devkitpro/devkitarm/bin/../lib/gcc/arm-none-eabi/4.7.1/thumb/crti.o
 .text          0x02000240       0xd0 c:/devkitpro/devkitarm/bin/../lib/gcc/arm-none-eabi/4.7.1/thumb/crtbegin.o
 .text          0x02000310        0x0 main.o
 .text          0x02000310      0x884 c:/Users/Derrick/Desktop/nflib_20120804/nflib/examples/graphics/backbuffer/nflib/lib\libnflib.a(nf_2d.o)
                0x02000310                NF_Set2D
                0x02000374                NF_ShowBg
                0x020003f0                NF_HideBg
                0x02000494                NF_ScrollBg
                0x020007f8                NF_MoveSprite
                0x02000818                NF_SpriteLayer
                0x02000834                NF_ShowSprite
                0x02000854                NF_HflipSprite
                0x02000870                NF_GetSpriteHflip
                0x0200088c                NF_VflipSprite
                0x020008a8                NF_GetSpriteVflip
                0x020008c4                NF_SpriteFrame
                0x02000994                NF_EnableSpriteRotScale
                0x02000a28                NF_DisableSpriteRotScale
                0x02000a9c                NF_SpriteRotScale
 .text          0x02000b94      0x4a0 c:/Users/Derrick/Desktop/nflib_20120804/nflib/examples/graphics/backbuffer/nflib/lib\libnflib.a(nf_basic.o)
                0x02000b94                NF_Error
                0x02000e40                NF_SetRootFolder
                0x02000f98                NF_DmaMemCopy
                0x02001024                NF_GetLanguage
 .text          0x02001034      0xa10 c:/Users/Derrick/Desktop/nflib_20120804/nflib/examples/graphics/backbuffer/nflib/lib\libnflib.a(nf_bitmapbg.o)
                0x02001034                NF_Init16bitsBgBuffers
                0x02001060                NF_Reset16bitsBgBuffers
                0x020010a4                NF_Init16bitsBackBuffer
                0x020010c0                NF_Enable16bitsBackBuffer
                0x020010fc                NF_Disble16bitsBackBuffer
                0x0200111c                NF_Flip16bitsBackBuffer
                0x02001148                NF_InitBitmapBgSys
                0x02001328                NF_Load16bImgData
                0x02001444                NF_Load16bitsImage
                0x02001454                NF_Load16bitsBg
                0x0200146c                NF_Unload16bitsBg
                0x020014a0                NF_Copy16bitsBuffer
                0x0200150c                NF_Draw16bitsImage
                0x0200163c                NF_Init8bitsBgBuffers
                0x02001664                NF_Reset8bitsBgBuffers
                0x020016a4                NF_Load8bitsBg
                0x0200183c                NF_Unload8bitsBg
                0x02001884                NF_Copy8bitsBuffer
                0x02001940                NF_Init8bitsBackBuffer
                0x02001960                NF_Enable8bitsBackBuffer
                0x020019c8                NF_Disble8bitsBackBuffer
                0x020019f4                NF_Flip8bitsBackBuffer
 .text          0x02001a44     0x143c c:/Users/Derrick/Desktop/nflib_20120804/nflib/examples/graphics/backbuffer/nflib/lib\libnflib.a(nf_sprite256.o)
                0x02001a44                NF_InitSpriteBuffers
                0x02001a90                NF_ResetSpriteBuffers
                0x02001ac4                NF_InitSpriteSys
                0x02001d00                NF_LoadSpriteGfx
                0x02001e1c                NF_UnloadSpriteGfx
                0x02001e8c                NF_LoadSpritePal
                0x02001f8c                NF_UnloadSpritePal
                0x02001fdc                NF_VramSpriteGfx
                0x02002334                NF_VramSpriteGfxDefrag
                0x02002568                NF_FreeSpriteGfx
                0x02002668                NF_VramSpritePal
                0x0200273c                NF_CreateSprite
                0x02002ae8                NF_DeleteSprite
                0x02002b8c                NF_SpriteOamSet
                0x02002c6c                NF_SpriteSetPalColor
                0x02002d04                NF_SpriteEditPalColor
                0x02002d84                NF_SpriteUpdatePalette
                0x02002e14                NF_SpriteGetPalColor
 .text          0x02002e80     0x1a68 c:/Users/Derrick/Desktop/nflib_20120804/nflib/examples/graphics/backbuffer/nflib/lib\libnflib.a(nf_tiledbg.o)
                0x02002e80                NF_InitTiledBgBuffers
                0x02002f38                NF_ResetTiledBgBuffers
                0x02002f88                NF_InitTiledBgSys
                0x020030bc                NF_LoadTiledBg
                0x02003354                NF_LoadTilesForBg
                0x020035e4                NF_UnloadTiledBg
                0x020036a0                NF_DeleteTiledBg
                0x02003848                NF_CreateTiledBg
                0x02003eb0                NF_GetTileMapAddress
                0x02003f6c                NF_GetTileOfMap
                0x02003fa8                NF_SetTileOfMap
                0x02003fec                NF_UpdateVramMap
                0x0200410c                NF_BgSetPalColor
                0x020041bc                NF_BgEditPalColor
                0x02004264                NF_BgUpdatePalette
                0x02004324                NF_BgGetPalColor
                0x020043bc                NF_GetTilePal
                0x020043f0                NF_SetTilePal
                0x02004434                NF_LoadExBgPal
                0x02004520                NF_UnloadExBgPal
                0x02004570                NF_VramExBgPal
                0x02004624                NF_SetExBgPal
                0x020046e4                NF_SetTileHflip
                0x02004720                NF_SetTileVflip
                0x0200475c                NF_RotateTileGfx
 .text          0x020048e8      0xb34 c:/devkitPro/libnds/lib\libfilesystem.a(nitrofs.o)
                0x020052fc                nitroFSInit
 .text          0x0200541c      0x340 c:/devkitPro/libnds/lib\libfat.a(libfat.o)
                0x0200541c                fatMount
                0x020054d8                fatMountSimple
                0x020054ec                fatUnmount
                0x02005524                fatInit
                0x02005674                fatInitDefault
                0x02005680                fatGetVolumeLabel
 .text          0x0200575c      0x724 c:/devkitPro/libnds/lib\libfat.a(partition.o)
                0x0200575c                FindFirstValidPartition_buf
                0x020058e4                FindFirstValidPartition
                0x0200590c                _FAT_partition_getPartitionFromPath
                0x02005920                _FAT_partition_createFSinfo
                0x020059e0                _FAT_partition_readFSinfo
                0x02005aa0                _FAT_partition_constructor_buf
                0x02005d48                _FAT_partition_constructor
                0x02005d88                _FAT_partition_writeFSinfo
                0x02005e40                _FAT_partition_destructor
 .text          0x02005e80      0x4b4 c:/devkitPro/libnds/lib\libfat.a(cache.o)
                0x02005f70                _FAT_cache_constructor
                0x02006008                _FAT_cache_readSectors
                0x0200606c                _FAT_cache_readPartialSector
                0x020060a8                _FAT_cache_readLittleEndianValue
                0x02006114                _FAT_cache_writePartialSector
                0x0200615c                _FAT_cache_writeLittleEndianValue
                0x020061ac                _FAT_cache_eraseWritePartialSector
                0x02006204                _FAT_cache_writeSectors
                0x02006270                _FAT_cache_flush
                0x020062d0                _FAT_cache_destructor
                0x02006304                _FAT_cache_invalidate
 .text          0x02006334     0x13b8 c:/devkitPro/libnds/lib\libfat.a(directory.o)
                0x020065b0                _FAT_directory_entryGetCluster
                0x020065d8                _FAT_directory_getNextEntry
                0x020067c4                _FAT_directory_getFirstEntry
                0x02006868                _FAT_directory_getRootEntry
                0x020068c4                _FAT_directory_getVolumeLabel
                0x02006984                _FAT_directory_entryFromPosition
                0x02006acc                _FAT_directory_entryFromPath
                0x02006cd0                _FAT_directory_removeEntry
                0x02006dac                _FAT_directory_addEntry
                0x020075e8                _FAT_directory_chdir
                0x02007624                _FAT_directory_entryStat
 .text          0x020076ec        0x8 c:/devkitPro/libnds/lib\libfat.a(disc.o)
 .text          0x020076f4      0x970 c:/devkitPro/libnds/lib\libfat.a(fatdir.o)
                0x020076f4                _FAT_stat_r
                0x02007790                _FAT_link_r
                0x0200779c                _FAT_unlink_r
                0x02007910                _FAT_chdir_r
                0x02007980                _FAT_rename_r
                0x02007b4c                _FAT_mkdir_r
                0x02007e28                _FAT_statvfs_r
                0x02007eb0                _FAT_diropen_r
                0x02007f74                _FAT_dirreset_r
                0x02007fc0                _FAT_dirnext_r
                0x02008044                _FAT_dirclose_r
 .text          0x02008064     0x13b0 c:/devkitPro/libnds/lib\libfat.a(fatfile.o)
                0x020082dc                _FAT_findEntry
                0x02008318                FAT_getAttr
                0x02008340                FAT_setAttr
                0x020083dc                _FAT_open_r
                0x02008724                _FAT_syncToDisc
                0x02008818                _FAT_close_r
                0x02008884                _FAT_read_r
                0x02008bc4                _FAT_write_r
                0x02009060                _FAT_seek_r
                0x020091d0                _FAT_fstat_r
                0x0200926c                _FAT_ftruncate_r
                0x020093d4                _FAT_fsync_r
 .text          0x02009414      0x4b4 c:/devkitPro/libnds/lib\libfat.a(file_allocation_table.o)
                0x02009564                _FAT_fat_nextCluster
                0x0200967c                _FAT_fat_linkFreeCluster
                0x02009714                _FAT_fat_linkFreeClusterCleared
                0x02009784                _FAT_fat_clearLinks
                0x020097e0                _FAT_fat_trimChain
                0x02009868                _FAT_fat_lastCluster
                0x0200989c                _FAT_fat_freeClusterCount
 .text          0x020098c8       0xb8 c:/devkitPro/libnds/lib\libfat.a(filetime.o)
                0x020098c8                _FAT_filetime_getTimeFromRTC
                0x02009908                _FAT_filetime_getDateFromRTC
                0x02009948                _FAT_filetime_to_time_t
 .text          0x02009980       0x10 c:/devkitPro/libnds/lib\libfat.a(lock.o)
                0x02009980                _FAT_lock_init
                0x02009984                _FAT_lock_deinit
                0x02009988                _FAT_lock
                0x0200998c                _FAT_unlock
 .text          0x02009990      0xa4c c:/devkitPro/libnds/lib\libnds9.a(console.o)
                0x02009a30                nocash_write
                0x02009a40                consoleGetDefault
                0x02009a4c                consoleSelect
                0x02009a5c                consoleDebugInit
                0x02009aac                consolePrintChar
                0x02009c78                consoleLoadFont
                0x02009f00                consoleSetFont
                0x02009f20                consoleInit
                0x0200a088                consoleDemoInit
                0x0200a0cc                con_write
                0x0200a3a8                consoleClear
                0x0200a3b8                consoleSetWindow
 .text          0x0200a3dc      0x3f4 c:/devkitPro/libnds/lib\libnds9.a(sprite.o)
                0x0200a3dc                oamInit
                0x0200a4f0                oamDisable
                0x0200a520                oamEnable
                0x0200a544                oamGetGfxPtr
                0x0200a578                oamClear
                0x0200a5a0                oamGfxPtrToOffset
                0x0200a5d4                oamSet
                0x0200a724                oamUpdate
                0x0200a784                oamRotateScale
 .text          0x0200a7d0      0x450 c:/devkitPro/libnds/lib\libnds9.a(sprite_alloc.o)
                0x0200a800                oamAllocReset
                0x0200a834                oamAllocateGfx
                0x0200aa38                oamFreeGfx
                0x0200abd4                oamCountFragments
 .text          0x0200ac20      0x244 c:/devkitPro/libnds/lib\libnds9.a(trig.o)
                0x0200ac20                asinComp
                0x0200ac48                sinLutLookup
                0x0200ac84                sinLerp
                0x0200acbc                cosLerp
                0x0200acd0                tanLutLookup
                0x0200ad08                tanLerp
                0x0200adac                asinLerp
                0x0200ae28                acosLerp
                0x0200ae3c                atanComp
 .text          0x0200ae64      0x1f8 c:/devkitPro/libnds/lib\libnds9.a(video.o)
                0x0200ae64                vramSetPrimaryBanks
                0x0200aea8                vramSetMainBanks
                0x0200aeec                vramSetBanks_EFG
                0x0200af24                vramRestorePrimaryBanks
                0x0200af30                vramRestoreMainBanks
                0x0200af3c                vramRestoreBanks_EFG
                0x0200af48                setBrightness
                0x0200af88                vramDefault
 .text          0x0200b05c      0x238 c:/devkitPro/libnds/lib\libnds9.a(dldi.o)
                0x0200b05c                dldiGetInternal
                0x0200b094                dldiIsValid
                0x0200b0cc                dldiFixDriverAddresses
                0x0200b1a4                dldiLoadFromFile
                0x0200b288                dldiFree
 .text          0x0200b294      0x148 c:/devkitPro/libnds/lib\libnds9.a(dsi_sd.o)
                0x0200b294                sdio_ClearStatus
                0x0200b2a4                sdio_Shutdown
                0x0200b2b4                sdio_WriteSectors
                0x0200b308                sdio_ReadSectors
                0x0200b35c                sdio_IsInserted
                0x0200b390                sdio_Startup
 .text          0x0200b3dc      0x140 c:/devkitPro/libnds/lib\libnds9.a(initSystem.o)
                0x0200b3dc                initSystem
 .text          0x0200b51c      0x23c c:/devkitPro/libnds/lib\libnds9.a(card.o)
                0x0200b51c                cardWriteCommand
                0x0200b540                cardPolledTransfer
                0x0200b590                cardStartTransfer
                0x0200b5ec                cardWriteAndRead
                0x0200b630                cardParamCommand
                0x0200b660                cardReadID
                0x0200b688                cardReset
                0x0200b6fc                cardReadHeader
 .text          0x0200b758      0xc58 c:/devkitPro/libnds/lib\libnds9.a(fifosystem.o)
                0x0200b9ac                fifoSendAddress
                0x0200b9d8                fifoSendValue32
                0x0200ba18                fifoSendDatamsg
                0x0200ba88                fifoGetAddress
                0x0200bb00                fifoSetAddressHandler
                0x0200bb74                fifoGetValue32
                0x0200bbe8                fifoSetValue32Handler
                0x0200bc5c                fifoGetDatamsg
                0x0200c0e0                fifoSetDatamsgHandler
                0x0200c178                fifoCheckAddress
                0x0200c19c                fifoCheckDatamsg
                0x0200c1c0                fifoCheckValue32
                0x0200c1e4                fifoInit
 .text          0x0200c3b0      0x1ec c:/devkitPro/libnds/lib\libnds9.a(interrupts.o)
                0x0200c3b0                irqDummy
                0x0200c3b4                irqSet
                0x0200c420                irqInit
                0x0200c46c                irqInitHandler
                0x0200c49c                irqEnable
                0x0200c500                irqDisable
                0x0200c564                irqClear
 .text          0x0200c59c       0x58 c:/devkitPro/libnds/lib\libnds9.a(libnds_exit.arm.o)
                0x0200c59c                systemErrorExit
                0x0200c5a0                __libnds_exit
 .text          0x0200c5f4       0x70 c:/devkitPro/libnds/lib\libnds9.a(dcache.o)
                0x0200c5f4                DC_FlushAll
                0x0200c620                DC_FlushRange
                0x0200c63c                DC_InvalidateAll
                0x0200c648                DC_InvalidateRange
 *fill*         0x0200c664       0x1c ff
 .text          0x0200c680     0x8000 c:/devkitPro/libnds/lib\libnds9.a(dldi_stub.o)
                0x0200c680                _io_dldi_stub
 .text          0x02014680      0x1b4 c:/devkitPro/libnds/lib\libnds9.a(mpu_setup.o)
                0x02014680                __libnds_mpu_setup
                0x020147c0                memCached
                0x020147d8                memUncached
 *fill*         0x02014834        0xc ff
 .text          0x02014840       0x70 c:/devkitPro/libnds/lib\libnds9.a(biosCalls.o)
                0x02014840                swiDelay
                0x02014844                swiIntrWait
                0x02014848                swiWaitForVBlank
                0x0201484c                swiSleep
                0x02014850                swiChangeSoundBias
                0x02014854                swiDivide
                0x02014858                swiRemainder
                0x0201485e                swiDivMod
                0x0201486a                swiCopy
                0x0201486e                swiFastCopy
                0x02014872                swiSqrt
                0x02014876                swiCRC16
                0x0201487a                swiIsDebugger
                0x0201487e                swiUnpackBits
                0x02014882                swiDecompressLZSSWram
                0x02014886                swiDecompressLZSSVramNTR
                0x0201488a                swiDecompressLZSSVramTWL
                0x0201488e                swiDecompressHuffman
                0x02014892                swiDecompressRLEWram
                0x02014896                swiDecompressRLEVram
                0x0201489a                swiWaitForIRQ
                0x0201489e                swiDecodeDelta8
                0x020148a2                swiDecodeDelta16
                0x020148a6                swiSetHaltCR
 .text          0x020148b0       0xa4 c:/devkitPro/libnds/lib\libnds9.a(debugprint.o)
                0x020148b0                nocashWrite
                0x020148b2                nocashMessage
 .text          0x02014954        0x0 c:/devkitPro/libnds/lib\libnds9.a(interruptDispatcher.o)
 *fill*         0x02014954        0xc ff
 .text          0x02014960       0x30 c:/devkitPro/libnds/lib\libnds9.a(swiSoftReset.o)
                0x02014960                swiSoftReset
 .text          0x02014990        0x0 c:/devkitPro/libnds/lib\libnds9.a(default_font.bin.o)
 .text          0x02014990      0x2e8 c:/devkitPro/libnds/lib\libnds9.a(background.o)
                0x02014990                bgIsText
                0x0201499c                checkIfText
                0x020149f4                bgUpdate
                0x02014ae8                bgInit_call
                0x02014bac                bgInitSub_call
 .text          0x02014c78      0x128 c:/devkitPro/libnds/lib\libnds9.a(system.o)
                0x02014c78                setSDcallback
                0x02014c84                systemMsgHandler
                0x02014cc8                systemSleep
                0x02014ce0                systemValueHandler
                0x02014d1c                powerOn
                0x02014d48                powerOff
                0x02014d70                ledBlink
                0x02014d80                getBatteryLevel
 .text          0x02014da0      0x11c c:/devkitpro/devkitarm/bin/../lib/gcc/arm-none-eabi/4.7.1/thumb\libgcc.a(_udivsi3.o)
                0x02014da0                __aeabi_uidiv
                0x02014da0                __udivsi3
                0x02014e9c                __aeabi_uidivmod
 .text          0x02014ebc      0x150 c:/devkitpro/devkitarm/bin/../lib/gcc/arm-none-eabi/4.7.1/thumb\libgcc.a(_divsi3.o)
                0x02014ebc                __divsi3
                0x02014ebc                __aeabi_idiv
                0x02014fec                __aeabi_idivmod
 .text          0x0201500c        0x4 c:/devkitpro/devkitarm/bin/../lib/gcc/arm-none-eabi/4.7.1/thumb\libgcc.a(_dvmd_tls.o)
                0x0201500c                __aeabi_idiv0
                0x0201500c                __aeabi_ldiv0
 .text          0x02015010       0x4c c:/devkitpro/devkitarm/bin/../lib/gcc/arm-none-eabi/4.7.1/thumb\libgcc.a(_muldi3.o)
                0x02015010                __muldi3
                0x02015010                __aeabi_lmul
 .text          0x0201505c       0x64 c:/devkitpro/devkitarm/bin/../lib/gcc/arm-none-eabi/4.7.1/../../../../arm-none-eabi/lib/thumb\libg.a(lib_a-bsearch.o)
                0x0201505c                bsearch
 .text          0x020150c0       0x1c c:/devkitpro/devkitarm/bin/../lib/gcc/arm-none-eabi/4.7.1/../../../../arm-none-eabi/lib/thumb\libg.a(lib_a-calloc.o)
                0x020150c0                calloc
 .text          0x020150dc       0x64 c:/devkitpro/devkitarm/bin/../lib/gcc/arm-none-eabi/4.7.1/../../../../arm-none-eabi/lib/thumb\libg.a(lib_a-callocr.o)
                0x020150dc                _calloc_r
 .text          0x02015140       0x10 c:/devkitpro/devkitarm/bin/../lib/gcc/arm-none-eabi/4.7.1/../../../../arm-none-eabi/lib/thumb\libg.a(lib_a-ctype_.o)
                0x02015140                __set_ctype
 .text          0x02015150       0xb0 c:/devkitpro/devkitarm/bin/../lib/gcc/arm-none-eabi/4.7.1/../../../../arm-none-eabi/lib/thumb\libg.a(lib_a-fclose.o)
                0x02015150                _fclose_r
                0x020151e4                fclose
 .text          0x02015200      0x1b8 c:/devkitpro/devkitarm/bin/../lib/gcc/arm-none-eabi/4.7.1/../../../../arm-none-eabi/lib/thumb\libg.a(lib_a-fflush.o)
                0x02015200                __sflush_r
                0x02015358                _fflush_r
                0x02015388                fflush
 .text          0x020153b8      0x1d8 c:/devkitpro/devkitarm/bin/../lib/gcc/arm-none-eabi/4.7.1/../../../../arm-none-eabi/lib/thumb\libg.a(lib_a-findfp.o)
                0x020153c0                _cleanup_r
                0x02015420                __sfmoreglue
                0x02015450                _cleanup
                0x02015464                __sinit
                0x020154b8                __sfp
                0x02015548                __sfp_lock_acquire
                0x0201554c                __sfp_lock_release
                0x02015550                __sinit_lock_acquire
                0x02015554                __sinit_lock_release
                0x02015558                __fp_lock_all
                0x02015574                __fp_unlock_all
 .text          0x02015590       0xa8 c:/devkitpro/devkitarm/bin/../lib/gcc/arm-none-eabi/4.7.1/../../../../arm-none-eabi/lib/thumb\libg.a(lib_a-fopen.o)
                0x02015590                _fopen_r
                0x0201561c                fopen
 .text          0x02015638      0x190 c:/devkitpro/devkitarm/bin/../lib/gcc/arm-none-eabi/4.7.1/../../../../arm-none-eabi/lib/thumb\libg.a(lib_a-fread.o)
                0x02015638                _fread_r
                0x020157a0                fread
 .text          0x020157c8      0x238 c:/devkitpro/devkitarm/bin/../lib/gcc/arm-none-eabi/4.7.1/../../../../arm-none-eabi/lib/thumb\libg.a(lib_a-freer.o)
                0x020157c8                _malloc_trim_r
                0x0201586c                _free_r
 .text          0x02015a00      0x328 c:/devkitpro/devkitarm/bin/../lib/gcc/arm-none-eabi/4.7.1/../../../../arm-none-eabi/lib/thumb\libg.a(lib_a-fseek.o)
                0x02015a00                _fseek_r
                0x02015d04                fseek
 .text          0x02015d28       0x9c c:/devkitpro/devkitarm/bin/../lib/gcc/arm-none-eabi/4.7.1/../../../../arm-none-eabi/lib/thumb\libg.a(lib_a-ftell.o)
                0x02015d28                _ftell_r
                0x02015da8                ftell
 .text          0x02015dc4       0xb4 c:/devkitpro/devkitarm/bin/../lib/gcc/arm-none-eabi/4.7.1/../../../../arm-none-eabi/lib/thumb\libg.a(lib_a-fwalk.o)
                0x02015dc4                _fwalk
                0x02015e18                _fwalk_reent
 .text          0x02015e78        0x0 c:/devkitpro/devkitarm/bin/../lib/gcc/arm-none-eabi/4.7.1/../../../../arm-none-eabi/lib/thumb\libg.a(lib_a-impure.o)
 .text          0x02015e78       0x54 c:/devkitpro/devkitarm/bin/../lib/gcc/arm-none-eabi/4.7.1/../../../../arm-none-eabi/lib/thumb\libg.a(lib_a-init.o)
                0x02015e78                __libc_init_array
 .text          0x02015ecc       0x40 c:/devkitpro/devkitarm/bin/../lib/gcc/arm-none-eabi/4.7.1/../../../../arm-none-eabi/lib/thumb\libg.a(lib_a-iprintf.o)
                0x02015ecc                iprintf
                0x02015ef0                _iprintf_r
 .text          0x02015f0c       0x10 c:/devkitpro/devkitarm/bin/../lib/gcc/arm-none-eabi/4.7.1/../../../../arm-none-eabi/lib/thumb\libg.a(lib_a-lcltime_r.o)
                0x02015f0c                localtime_r
 .text          0x02015f1c      0x950 c:/devkitpro/devkitarm/bin/../lib/gcc/arm-none-eabi/4.7.1/../../../../arm-none-eabi/lib/thumb\libg.a(lib_a-locale.o)
                0x02016610                _setlocale_r
                0x0201680c                __locale_charset
                0x02016814                __locale_mb_cur_max
                0x02016820                __locale_msgcharset
                0x0201682c                __locale_cjk_lang
                0x02016838                _localeconv_r
                0x02016844                setlocale
                0x02016860                localeconv
 .text          0x0201686c       0xe0 c:/devkitpro/devkitarm/bin/../lib/gcc/arm-none-eabi/4.7.1/../../../../arm-none-eabi/lib/thumb\libg.a(lib_a-makebuf.o)
                0x0201686c                __smakebuf_r
 .text          0x0201694c       0x30 c:/devkitpro/devkitarm/bin/../lib/gcc/arm-none-eabi/4.7.1/../../../../arm-none-eabi/lib/thumb\libg.a(lib_a-malloc.o)
                0x0201694c                malloc
                0x02016964                free
 .text          0x0201697c      0x51c c:/devkitpro/devkitarm/bin/../lib/gcc/arm-none-eabi/4.7.1/../../../../arm-none-eabi/lib/thumb\libg.a(lib_a-mallocr.o)
                0x0201697c                _malloc_r
 .text          0x02016e98      0x104 c:/devkitpro/devkitarm/bin/../lib/gcc/arm-none-eabi/4.7.1/../../../../arm-none-eabi/lib/thumb\libg.a(lib_a-mbrtowc.o)
                0x02016e98                _mbrtowc_r
                0x02016f10                mbrtowc
 .text          0x02016f9c       0x40 c:/devkitpro/devkitarm/bin/../lib/gcc/arm-none-eabi/4.7.1/../../../../arm-none-eabi/lib/thumb\libg.a(lib_a-mbsrtowcs.o)
                0x02016f9c                _mbsrtowcs_r
                0x02016fb4                mbsrtowcs
 .text          0x02016fdc      0x584 c:/devkitpro/devkitarm/bin/../lib/gcc/arm-none-eabi/4.7.1/../../../../arm-none-eabi/lib/thumb\libg.a(lib_a-mbtowc_r.o)
                0x02016fdc                __utf8_mbtowc
                0x0201723c                _mbtowc_r
                0x02017278                __ascii_mbtowc
                0x020172a8                __sjis_mbtowc
                0x02017368                __eucjp_mbtowc
                0x02017430                __jis_mbtowc
 .text          0x02017560       0x60 c:/devkitpro/devkitarm/bin/../lib/gcc/arm-none-eabi/4.7.1/../../../../arm-none-eabi/lib/thumb\libg.a(lib_a-memcmp.o)
                0x02017560                memcmp
 .text          0x020175c0       0x90 c:/devkitpro/devkitarm/bin/../lib/gcc/arm-none-eabi/4.7.1/../../../../arm-none-eabi/lib/thumb\libg.a(lib_a-memcpy-stub.o)
                0x020175c0                memcpy
 .text          0x02017650       0xb0 c:/devkitpro/devkitarm/bin/../lib/gcc/arm-none-eabi/4.7.1/../../../../arm-none-eabi/lib/thumb\libg.a(lib_a-memmove.o)
                0x02017650                memmove
 .text          0x02017700       0x98 c:/devkitpro/devkitarm/bin/../lib/gcc/arm-none-eabi/4.7.1/../../../../arm-none-eabi/lib/thumb\libg.a(lib_a-memset.o)
                0x02017700                memset
 .text          0x02017798      0x508 c:/devkitpro/devkitarm/bin/../lib/gcc/arm-none-eabi/4.7.1/../../../../arm-none-eabi/lib/thumb\libg.a(lib_a-mktime.o)
                0x0201796c                mktime
 .text          0x02017ca0      0x498 c:/devkitpro/devkitarm/bin/../lib/gcc/arm-none-eabi/4.7.1/../../../../arm-none-eabi/lib/thumb\libg.a(lib_a-mktm_r.o)
                0x02017ca0                __tzcalc_limits
                0x02017e3c                _mktm_r
 .text          0x02018138        0x8 c:/devkitpro/devkitarm/bin/../lib/gcc/arm-none-eabi/4.7.1/../../../../arm-none-eabi/lib/thumb\libg.a(lib_a-mlock.o)
                0x02018138                __malloc_lock
                0x0201813c                __malloc_unlock
 .text          0x02018140       0x1c c:/devkitpro/devkitarm/bin/../lib/gcc/arm-none-eabi/4.7.1/../../../../arm-none-eabi/lib/thumb\libg.a(lib_a-realloc.o)
                0x02018140                realloc
 .text          0x0201815c      0x3e8 c:/devkitpro/devkitarm/bin/../lib/gcc/arm-none-eabi/4.7.1/../../../../arm-none-eabi/lib/thumb\libg.a(lib_a-reallocr.o)
                0x0201815c                _realloc_r
 .text          0x02018544      0x144 c:/devkitpro/devkitarm/bin/../lib/gcc/arm-none-eabi/4.7.1/../../../../arm-none-eabi/lib/thumb\libg.a(lib_a-refill.o)
                0x02018564                __srefill_r
 .text          0x02018688       0x34 c:/devkitpro/devkitarm/bin/../lib/gcc/arm-none-eabi/4.7.1/../../../../arm-none-eabi/lib/thumb\libg.a(lib_a-rewind.o)
                0x02018688                _rewind_r
                0x020186a4                rewind
 .text          0x020186bc      0x120 c:/devkitpro/devkitarm/bin/../lib/gcc/arm-none-eabi/4.7.1/../../../../arm-none-eabi/lib/thumb\libg.a(lib_a-setvbuf.o)
                0x020186bc                setvbuf
 .text          0x020187dc       0xa0 c:/devkitpro/devkitarm/bin/../lib/gcc/arm-none-eabi/4.7.1/../../../../arm-none-eabi/lib/thumb\libg.a(lib_a-siscanf.o)
                0x020187dc                siscanf
                0x0201882c                _siscanf_r
 .text          0x0201887c       0x84 c:/devkitpro/devkitarm/bin/../lib/gcc/arm-none-eabi/4.7.1/../../../../arm-none-eabi/lib/thumb\libg.a(lib_a-sprintf.o)
                0x0201887c                _sprintf_r
                0x020188bc                sprintf
 .text          0x02018900       0xac c:/devkitpro/devkitarm/bin/../lib/gcc/arm-none-eabi/4.7.1/../../../../arm-none-eabi/lib/thumb\libg.a(lib_a-stdio.o)
                0x02018900                __sread
                0x0201892c                __seofread
                0x02018930                __swrite
                0x0201896c                __sseek
                0x0201899c                __sclose
 .text          0x020189ac       0x48 c:/devkitpro/devkitarm/bin/../lib/gcc/arm-none-eabi/4.7.1/../../../../arm-none-eabi/lib/thumb\libg.a(lib_a-stpcpy.o)
                0x020189ac                stpcpy
 .text          0x020189f4       0x50 c:/devkitpro/devkitarm/bin/../lib/gcc/arm-none-eabi/4.7.1/../../../../arm-none-eabi/lib/thumb\libg.a(lib_a-strcasecmp.o)
                0x020189f4                strcasecmp
 .text          0x02018a44       0x50 c:/devkitpro/devkitarm/bin/../lib/gcc/arm-none-eabi/4.7.1/../../../../arm-none-eabi/lib/thumb\libg.a(lib_a-strcat.o)
                0x02018a44                strcat
 .text          0x02018a94       0xd4 c:/devkitpro/devkitarm/bin/../lib/gcc/arm-none-eabi/4.7.1/../../../../arm-none-eabi/lib/thumb\libg.a(lib_a-strchr.o)
                0x02018a94                strchr
 .text          0x02018b68       0x14 c:/devkitpro/devkitarm/bin/../lib/gcc/arm-none-eabi/4.7.1/../../../../arm-none-eabi/lib/thumb\libg.a(lib_a-strcmp.o)
                0x02018b68                strcmp
 .text          0x02018b7c       0x10 c:/devkitpro/devkitarm/bin/../lib/gcc/arm-none-eabi/4.7.1/../../../../arm-none-eabi/lib/thumb\libg.a(lib_a-strcpy.o)
                0x02018b7c                strcpy
 .text          0x02018b8c       0x48 c:/devkitpro/devkitarm/bin/../lib/gcc/arm-none-eabi/4.7.1/../../../../arm-none-eabi/lib/thumb\libg.a(lib_a-strlcpy.o)
                0x02018b8c                strlcpy
 .text          0x02018bd4       0x10 c:/devkitpro/devkitarm/bin/../lib/gcc/arm-none-eabi/4.7.1/../../../../arm-none-eabi/lib/thumb\libg.a(lib_a-strlen.o)
                0x02018bd4                strlen
 .text          0x02018be4       0x60 c:/devkitpro/devkitarm/bin/../lib/gcc/arm-none-eabi/4.7.1/../../../../arm-none-eabi/lib/thumb\libg.a(lib_a-strncasecmp.o)
                0x02018be4                strncasecmp
 .text          0x02018c44       0xbc c:/devkitpro/devkitarm/bin/../lib/gcc/arm-none-eabi/4.7.1/../../../../arm-none-eabi/lib/thumb\libg.a(lib_a-strncmp.o)
                0x02018c44                strncmp
 .text          0x02018d00       0x60 c:/devkitpro/devkitarm/bin/../lib/gcc/arm-none-eabi/4.7.1/../../../../arm-none-eabi/lib/thumb\libg.a(lib_a-strncpy.o)
                0x02018d00                strncpy
 .text          0x02018d60       0x34 c:/devkitpro/devkitarm/bin/../lib/gcc/arm-none-eabi/4.7.1/../../../../arm-none-eabi/lib/thumb\libg.a(lib_a-strnlen.o)
                0x02018d60                strnlen
 .text          0x02018d94       0x50 c:/devkitpro/devkitarm/bin/../lib/gcc/arm-none-eabi/4.7.1/../../../../arm-none-eabi/lib/thumb\libg.a(lib_a-strpbrk.o)
                0x02018d94                strpbrk
 .text          0x02018de4       0x2c c:/devkitpro/devkitarm/bin/../lib/gcc/arm-none-eabi/4.7.1/../../../../arm-none-eabi/lib/thumb\libg.a(lib_a-strrchr.o)
                0x02018de4                strrchr
 .text          0x02018e10      0x190 c:/devkitpro/devkitarm/bin/../lib/gcc/arm-none-eabi/4.7.1/../../../../arm-none-eabi/lib/thumb\libg.a(lib_a-strtol.o)
                0x02018e10                _strtol_r
                0x02018f80                strtol
 .text          0x02018fa0      0xa98 c:/devkitpro/devkitarm/bin/../lib/gcc/arm-none-eabi/4.7.1/../../../../arm-none-eabi/lib/thumb\libg.a(lib_a-svfiscanf.o)
                0x02018fa0                _sungetc_r
                0x02019028                __ssrefill_r
                0x0201906c                _sfread_r
                0x020190f8                __ssvfiscanf_r
 .text          0x02019a38     0x1728 c:/devkitpro/devkitarm/bin/../lib/gcc/arm-none-eabi/4.7.1/../../../../arm-none-eabi/lib/thumb\libg.a(lib_a-svfprintf.o)
                0x02019a38                _svfprintf_r
 .text          0x0201b160       0x18 c:/devkitpro/devkitarm/bin/../lib/gcc/arm-none-eabi/4.7.1/../../../../arm-none-eabi/lib/thumb\libg.a(lib_a-sysclose.o)
                0x0201b160                close
 .text          0x0201b178       0x20 c:/devkitpro/devkitarm/bin/../lib/gcc/arm-none-eabi/4.7.1/../../../../arm-none-eabi/lib/thumb\libg.a(lib_a-syslseek.o)
                0x0201b178                lseek
 .text          0x0201b198       0x24 c:/devkitpro/devkitarm/bin/../lib/gcc/arm-none-eabi/4.7.1/../../../../arm-none-eabi/lib/thumb\libg.a(lib_a-sysopen.o)
                0x0201b198                open
 .text          0x0201b1bc       0x20 c:/devkitpro/devkitarm/bin/../lib/gcc/arm-none-eabi/4.7.1/../../../../arm-none-eabi/lib/thumb\libg.a(lib_a-sysread.o)
                0x0201b1bc                read
 .text          0x0201b1dc       0x30 c:/devkitpro/devkitarm/bin/../lib/gcc/arm-none-eabi/4.7.1/../../../../arm-none-eabi/lib/thumb\libg.a(lib_a-time.o)
                0x0201b1dc                time
 .text          0x0201b20c      0x730 c:/devkitpro/devkitarm/bin/../lib/gcc/arm-none-eabi/4.7.1/../../../../arm-none-eabi/lib/thumb\libg.a(lib_a-towlower.o)
                0x0201b20c                towlower
 .text          0x0201b93c      0x9dc c:/devkitpro/devkitarm/bin/../lib/gcc/arm-none-eabi/4.7.1/../../../../arm-none-eabi/lib/thumb\libg.a(lib_a-towupper.o)
                0x0201b93c                towupper
 .text          0x0201c318        0x8 c:/devkitpro/devkitarm/bin/../lib/gcc/arm-none-eabi/4.7.1/../../../../arm-none-eabi/lib/thumb\libg.a(lib_a-tzlock.o)
                0x0201c318                __tz_lock
                0x0201c31c                __tz_unlock
 .text          0x0201c320        0x0 c:/devkitpro/devkitarm/bin/../lib/gcc/arm-none-eabi/4.7.1/../../../../arm-none-eabi/lib/thumb\libg.a(lib_a-tzvars.o)
 .text          0x0201c320      0x188 c:/devkitpro/devkitarm/bin/../lib/gcc/arm-none-eabi/4.7.1/../../../../arm-none-eabi/lib/thumb\libg.a(lib_a-ungetc.o)
                0x0201c320                __submore
                0x0201c3a8                _ungetc_r
                0x0201c48c                ungetc
 .text          0x0201c4a8      0xed4 c:/devkitpro/devkitarm/bin/../lib/gcc/arm-none-eabi/4.7.1/../../../../arm-none-eabi/lib/thumb\libg.a(lib_a-vfiprintf.o)
                0x0201c4a8                __sprint_r
                0x0201c52c                _vfiprintf_r
                0x0201d358                vfiprintf
 .text          0x0201d37c       0xe8 c:/devkitpro/devkitarm/bin/../lib/gcc/arm-none-eabi/4.7.1/../../../../arm-none-eabi/lib/thumb\libg.a(lib_a-wcrtomb.o)
                0x0201d37c                _wcrtomb_r
                0x0201d3e4                wcrtomb
 .text          0x0201d464       0x40 c:/devkitpro/devkitarm/bin/../lib/gcc/arm-none-eabi/4.7.1/../../../../arm-none-eabi/lib/thumb\libg.a(lib_a-wcsrtombs.o)
                0x0201d464                _wcsrtombs_r
                0x0201d47c                wcsrtombs
 .text          0x0201d4a4       0x54 c:/devkitpro/devkitarm/bin/../lib/gcc/arm-none-eabi/4.7.1/../../../../arm-none-eabi/lib/thumb\libg.a(lib_a-wctob.o)
                0x0201d4a4                wctob
 .text          0x0201d4f8      0x2a4 c:/devkitpro/devkitarm/bin/../lib/gcc/arm-none-eabi/4.7.1/../../../../arm-none-eabi/lib/thumb\libg.a(lib_a-wctomb_r.o)
                0x0201d4f8                __utf8_wctomb
                0x0201d5ac                _wctomb_r
                0x0201d5e4                __ascii_wctomb
                0x0201d604                __sjis_wctomb
                0x0201d680                __eucjp_wctomb
                0x0201d71c                __jis_wctomb
 .text          0x0201d79c       0xd0 c:/devkitpro/devkitarm/bin/../lib/gcc/arm-none-eabi/4.7.1/../../../../arm-none-eabi/lib/thumb\libg.a(lib_a-wsetup.o)
                0x0201d79c                __swsetup_r
 .text          0x0201d86c       0x40 c:/devkitpro/devkitarm/bin/../lib/gcc/arm-none-eabi/4.7.1/../../../../arm-none-eabi/lib/thumb\libg.a(lib_a-div.o)
                0x0201d86c                div
 *fill*         0x0201d8ac        0x4 ff
 .text          0x0201d8b0     0x10a0 c:/devkitpro/devkitarm/bin/../lib/gcc/arm-none-eabi/4.7.1/../../../../arm-none-eabi/lib/thumb\libg.a(lib_a-dtoa.o)
                0x0201da08                _dtoa_r
 .text          0x0201e950       0x70 c:/devkitpro/devkitarm/bin/../lib/gcc/arm-none-eabi/4.7.1/../../../../arm-none-eabi/lib/thumb\libg.a(lib_a-flags.o)
                0x0201e950                __sflags
 .text          0x0201e9c0      0x104 c:/devkitpro/devkitarm/bin/../lib/gcc/arm-none-eabi/4.7.1/../../../../arm-none-eabi/lib/thumb\libg.a(lib_a-fputwc.o)
                0x0201e9c0                _fputwc_r
                0x0201ea98                fputwc
 .text          0x0201eac4      0x2fc c:/devkitpro/devkitarm/bin/../lib/gcc/arm-none-eabi/4.7.1/../../../../arm-none-eabi/lib/thumb\libg.a(lib_a-fvwrite.o)
                0x0201eac4                __sfvwrite_r
 .text          0x0201edc0       0xa8 c:/devkitpro/devkitarm/bin/../lib/gcc/arm-none-eabi/4.7.1/../../../../arm-none-eabi/lib/thumb\libg.a(lib_a-getenv_r.o)
                0x0201edc0                _findenv_r
                0x0201ee58                _getenv_r
 .text          0x0201ee68        0x8 c:/devkitpro/devkitarm/bin/../lib/gcc/arm-none-eabi/4.7.1/../../../../arm-none-eabi/lib/thumb\libg.a(lib_a-gettzinfo.o)
                0x0201ee68                __gettzinfo
 .text          0x0201ee70       0x78 c:/devkitpro/devkitarm/bin/../lib/gcc/arm-none-eabi/4.7.1/../../../../arm-none-eabi/lib/thumb\libg.a(lib_a-iswspace.o)
                0x0201ee70                iswspace
 .text          0x0201eee8      0x1f0 c:/devkitpro/devkitarm/bin/../lib/gcc/arm-none-eabi/4.7.1/../../../../arm-none-eabi/lib/thumb\libg.a(lib_a-jp2uc.o)
                0x0201f074                _jp2uc
 .text          0x0201f0d8       0xe8 c:/devkitpro/devkitarm/bin/../lib/gcc/arm-none-eabi/4.7.1/../../../../arm-none-eabi/lib/thumb\libg.a(lib_a-mbsnrtowcs.o)
                0x0201f0d8                _mbsnrtowcs_r
                0x0201f194                mbsnrtowcs
 .text          0x0201f1c0       0x98 c:/devkitpro/devkitarm/bin/../lib/gcc/arm-none-eabi/4.7.1/../../../../arm-none-eabi/lib/thumb\libg.a(lib_a-memchr-stub.o)
                0x0201f1c0                memchr
 .text          0x0201f258      0x978 c:/devkitpro/devkitarm/bin/../lib/gcc/arm-none-eabi/4.7.1/../../../../arm-none-eabi/lib/thumb\libg.a(lib_a-mprec.o)
                0x0201f258                _Balloc
                0x0201f2ac                _Bfree
                0x0201f2c4                __multadd
                0x0201f370                __s2b
                0x0201f40c                __hi0bits
                0x0201f444                __lo0bits
                0x0201f4a4                __i2b
                0x0201f4bc                __multiply
                0x0201f620                __pow5mult
                0x0201f6d0                __lshift
                0x0201f7a0                __mcmp
                0x0201f7dc                __mdiff
                0x0201f8cc                __ulp
                0x0201f914                __b2d
                0x0201f9b8                __d2b
                0x0201fa70                __ratio
                0x0201faec                _mprec_log10
                0x0201fb2c                __copybits
                0x0201fb74                __any_on
 .text          0x0201fbd0       0x7c c:/devkitpro/devkitarm/bin/../lib/gcc/arm-none-eabi/4.7.1/../../../../arm-none-eabi/lib/thumb\libg.a(lib_a-sccl.o)
                0x0201fbd0                __sccl
 .text          0x0201fc4c       0x5c c:/devkitpro/devkitarm/bin/../lib/gcc/arm-none-eabi/4.7.1/../../../../arm-none-eabi/lib/thumb\libg.a(lib_a-s_fpclassify.o)
                0x0201fc4c                __fpclassifyd
 .text          0x0201fca8      0x208 c:/devkitpro/devkitarm/bin/../lib/gcc/arm-none-eabi/4.7.1/../../../../arm-none-eabi/lib/thumb\libg.a(lib_a-strtoll_r.o)
                0x0201fca8                _strtoll_r
 .text          0x0201feb0      0x238 c:/devkitpro/devkitarm/bin/../lib/gcc/arm-none-eabi/4.7.1/../../../../arm-none-eabi/lib/thumb\libg.a(lib_a-strtoull_r.o)
                0x0201feb0                _strtoull_r
 .text          0x020200e8      0x198 c:/devkitpro/devkitarm/bin/../lib/gcc/arm-none-eabi/4.7.1/../../../../arm-none-eabi/lib/thumb\libg.a(lib_a-strtoul.o)
                0x020200e8                _strtoul_r
                0x02020260                strtoul
 .text          0x02020280      0xeb4 c:/devkitpro/devkitarm/bin/../lib/gcc/arm-none-eabi/4.7.1/../../../../arm-none-eabi/lib/thumb\libg.a(lib_a-svfiprintf.o)
                0x02020280                __ssprint_r
                0x020203b0                _svfiprintf_r
 .text          0x02021134       0xd0 c:/devkitpro/devkitarm/bin/../lib/gcc/arm-none-eabi/4.7.1/../../../../arm-none-eabi/lib/thumb\libg.a(lib_a-wbuf.o)
                0x02021134                __swbuf_r
                0x020211e8                __swbuf
 .text          0x02021204      0x150 c:/devkitpro/devkitarm/bin/../lib/gcc/arm-none-eabi/4.7.1/../../../../arm-none-eabi/lib/thumb\libg.a(lib_a-wcsnrtombs.o)
                0x02021204                _wcsnrtombs_r
                0x02021324                wcsnrtombs
 .text          0x02021354        0x0 c:/devkitpro/devkitarm/bin/../lib/gcc/arm-none-eabi/4.7.1/../../../../arm-none-eabi/lib/thumb\libg.a(lib_a-environ.o)
 .text          0x02021354        0x8 c:/devkitpro/devkitarm/bin/../lib/gcc/arm-none-eabi/4.7.1/../../../../arm-none-eabi/lib/thumb\libg.a(lib_a-envlock.o)
                0x02021354                __env_lock
                0x02021358                __env_unlock
 .text          0x0202135c      0x144 c:/devkitpro/devkitarm/bin/../lib/gcc/arm-none-eabi/4.7.1/../../../../arm-none-eabi/lib/thumb\libsysbase.a(iosupport.o)
                0x0202135c                setDefaultDevice
                0x02021370                FindDevice
                0x020213e0                RemoveDevice
                0x02021404                AddDevice
                0x02021480                GetDeviceOpTab
 .text          0x020214a0       0x50 c:/devkitpro/devkitarm/bin/../lib/gcc/arm-none-eabi/4.7.1/../../../../arm-none-eabi/lib/thumb\libsysbase.a(close.o)
                0x020214a0                _close_r
 .text          0x020214f0       0x50 c:/devkitpro/devkitarm/bin/../lib/gcc/arm-none-eabi/4.7.1/../../../../arm-none-eabi/lib/thumb\libsysbase.a(fstat.o)
                0x020214f0                _fstat_r
 .text          0x02021540        0x4 c:/devkitpro/devkitarm/bin/../lib/gcc/arm-none-eabi/4.7.1/../../../../arm-none-eabi/lib/thumb\libsysbase.a(isatty.o)
                0x02021540                _isatty_r
 .text          0x02021544       0x50 c:/devkitpro/devkitarm/bin/../lib/gcc/arm-none-eabi/4.7.1/../../../../arm-none-eabi/lib/thumb\libsysbase.a(lseek.o)
                0x02021544                _lseek_r
 .text          0x02021594       0xa0 c:/devkitpro/devkitarm/bin/../lib/gcc/arm-none-eabi/4.7.1/../../../../arm-none-eabi/lib/thumb\libsysbase.a(open.o)
                0x02021594                _open_r
 .text          0x02021634       0x50 c:/devkitpro/devkitarm/bin/../lib/gcc/arm-none-eabi/4.7.1/../../../../arm-none-eabi/lib/thumb\libsysbase.a(read.o)
                0x02021634                _read_r
 .text          0x02021684       0x54 c:/devkitpro/devkitarm/bin/../lib/gcc/arm-none-eabi/4.7.1/../../../../arm-none-eabi/lib/thumb\libsysbase.a(sbrk.o)
                0x02021684                _sbrk_r
 .text          0x020216d8       0x44 c:/devkitpro/devkitarm/bin/../lib/gcc/arm-none-eabi/4.7.1/../../../../arm-none-eabi/lib/thumb\libsysbase.a(times.o)
                0x020216d8                _times
                0x020216ec                _times_r
                0x020216f4                _gettimeofday_r
 .text          0x0202171c       0x58 c:/devkitpro/devkitarm/bin/../lib/gcc/arm-none-eabi/4.7.1/../../../../arm-none-eabi/lib/thumb\libsysbase.a(write.o)
                0x0202171c                _write_r
 .text          0x02021774        0x0 c:/devkitpro/devkitarm/bin/../lib/gcc/arm-none-eabi/4.7.1/../../../../arm-none-eabi/lib/thumb\libsysbase.a(malloc_vars.o)
 .text          0x02021774      0x24c c:/devkitpro/devkitarm/bin/../lib/gcc/arm-none-eabi/4.7.1/../../../../arm-none-eabi/lib/thumb\libsysbase.a(chdir.o)
                0x02021774                _concatenate_path
                0x02021890                chdir
                0x02021970                getcwd
 .text          0x020219c0       0x4c c:/devkitpro/devkitarm/bin/../lib/gcc/arm-none-eabi/4.7.1/../../../../arm-none-eabi/lib/thumb\libsysbase.a(build_argv.o)
                0x020219c0                build_argv
 .text          0x02021a0c        0x0 c:/devkitpro/devkitarm/bin/../lib/gcc/arm-none-eabi/4.7.1/../../../../arm-none-eabi/lib/thumb\libsysbase.a(syscall_support.o)
 .text          0x02021a0c       0x84 c:/devkitpro/devkitarm/bin/../lib/gcc/arm-none-eabi/4.7.1/../../../../arm-none-eabi/lib/thumb\libsysbase.a(handle_manager.o)
                0x02021a0c                __release_handle
                0x02021a38                __alloc_handle
                0x02021a70                __get_handle
 .text          0x02021a90      0x41c c:/devkitpro/devkitarm/bin/../lib/gcc/arm-none-eabi/4.7.1/thumb\libgcc.a(_arm_addsubdf3.o)
                0x02021a90                __aeabi_drsub
                0x02021a98                __aeabi_dsub
                0x02021a98                __subdf3
                0x02021a9c                __aeabi_dadd
                0x02021a9c                __adddf3
                0x02021dac                __floatunsidf
                0x02021dac                __aeabi_ui2d
                0x02021dd0                __floatsidf
                0x02021dd0                __aeabi_i2d
                0x02021df8                __aeabi_f2d
                0x02021df8                __extendsfdf2
                0x02021e38                __floatundidf
                0x02021e38                __aeabi_ul2d
                0x02021e4c                __floatdidf
                0x02021e4c                __aeabi_l2d
 .text          0x02021eac      0x49c c:/devkitpro/devkitarm/bin/../lib/gcc/arm-none-eabi/4.7.1/thumb\libgcc.a(_arm_muldivdf3.o)
                0x02021eac                __aeabi_dmul
                0x02021eac                __muldf3
                0x0202213c                __divdf3
                0x0202213c                __aeabi_ddiv
 .text          0x02022348      0x144 c:/devkitpro/devkitarm/bin/../lib/gcc/arm-none-eabi/4.7.1/thumb\libgcc.a(_arm_cmpdf2.o)
                0x02022348                __gtdf2
                0x02022348                __gedf2
                0x02022350                __ltdf2
                0x02022350                __ledf2
                0x02022358                __nedf2
                0x02022358                __eqdf2
                0x02022358                __cmpdf2
                0x020223e0                __aeabi_cdrcmple
                0x020223fc                __aeabi_cdcmpeq
                0x020223fc                __aeabi_cdcmple
                0x02022414                __aeabi_dcmpeq
                0x0202242c                __aeabi_dcmplt
                0x02022444                __aeabi_dcmple
                0x0202245c                __aeabi_dcmpge
                0x02022474                __aeabi_dcmpgt
 .text          0x0202248c       0x5c c:/devkitpro/devkitarm/bin/../lib/gcc/arm-none-eabi/4.7.1/thumb\libgcc.a(_arm_fixdfsi.o)
                0x0202248c                __aeabi_d2iz
                0x0202248c                __fixdfsi
 .text          0x020224e8       0x3c c:/devkitpro/devkitarm/bin/../lib/gcc/arm-none-eabi/4.7.1/thumb\libgcc.a(_aeabi_uldivmod.o)
                0x020224e8                __aeabi_uldivmod
 .text          0x02022524       0x7c c:/devkitpro/devkitarm/bin/../lib/gcc/arm-none-eabi/4.7.1/thumb\libgcc.a(bpabi.o)
                0x02022524                __gnu_ldivmod_helper
                0x02022564                __gnu_uldivmod_helper
 .text          0x020225a0      0x3d4 c:/devkitpro/devkitarm/bin/../lib/gcc/arm-none-eabi/4.7.1/thumb\libgcc.a(_divdi3.o)
                0x020225a0                __divdi3
 .text          0x02022974      0x3a0 c:/devkitpro/devkitarm/bin/../lib/gcc/arm-none-eabi/4.7.1/thumb\libgcc.a(_udivdi3.o)
                0x02022974                __udivdi3
 .text          0x02022d14       0x48 c:/devkitpro/devkitarm/bin/../lib/gcc/arm-none-eabi/4.7.1/thumb\libgcc.a(_clzsi2.o)
                0x02022d14                __clzsi2
 .text          0x02022d5c        0xc c:/devkitpro/devkitarm/bin/../lib/gcc/arm-none-eabi/4.7.1/../../../../arm-none-eabi/lib/thumb\libg.a(lib_a-errno.o)
                0x02022d5c                __errno
 .text          0x02022d68        0x0 c:/devkitpro/devkitarm/bin/../lib/gcc/arm-none-eabi/4.7.1/thumb/crtend.o
 .text          0x02022d68        0x0 c:/devkitpro/devkitarm/bin/../lib/gcc/arm-none-eabi/4.7.1/thumb/crtn.o
 *(.text.*)
 .text.startup  0x02022d68       0xf8 main.o
                0x02022d68                main
 .text.startup.stub
                0x02022e60       0xd8 linker stubs
 *(.stub)
 *(.gnu.warning)
 *(.gnu.linkonce.t*)
 *(.glue_7)
 .glue_7        0x00000000        0x0 linker stubs
 *(.glue_7t)
 .glue_7t       0x00000000        0x0 linker stubs
                0x02022f38                . = ALIGN (0x4)

.vfp11_veneer   0x02022f48        0x0
 .vfp11_veneer  0x00000000        0x0 linker stubs

.v4_bx          0x02022f48        0x0
 .v4_bx         0x00000000        0x0 linker stubs

.iplt           0x02022f48        0x0
 .iplt          0x00000000        0x0 c:/devkitpro/devkitarm/bin/../lib/gcc/arm-none-eabi/4.7.1/../../../../arm-none-eabi/lib/thumb/ds_arm9_crt0.o

.fini           0x02022f48        0xc
 *(.fini)
 .fini          0x02022f48        0x4 c:/devkitpro/devkitarm/bin/../lib/gcc/arm-none-eabi/4.7.1/thumb/crti.o
                0x02022f48                _fini
 .fini          0x02022f4c        0x8 c:/devkitpro/devkitarm/bin/../lib/gcc/arm-none-eabi/4.7.1/thumb/crtn.o
                0x02022f54                __text_end = .

.rodata         0x02022f58     0x7ac8
 *(.rodata)
 .rodata        0x02022f58       0x50 c:/Users/Derrick/Desktop/nflib_20120804/nflib/examples/graphics/backbuffer/nflib/lib\libnflib.a(nf_basic.o)
 .rodata        0x02022fa8       0x64 c:/devkitPro/libnds/lib\libfat.a(libfat.o)
 .rodata        0x0202300c        0xc c:/devkitPro/libnds/lib\libfat.a(partition.o)
 .rodata        0x02023018       0x54 c:/devkitPro/libnds/lib\libfat.a(directory.o)
 .rodata        0x0202306c       0x18 c:/devkitPro/libnds/lib\libfat.a(disc.o)
                0x0202306c                _FAT_disc_interfaces
 .rodata        0x02023084      0x200 c:/devkitPro/libnds/lib\libnds9.a(console.o)
 .rodata        0x02023284      0x308 c:/devkitPro/libnds/lib\libnds9.a(trig.o)
                0x02023284                SIN_LUT
                0x02023388                TAN_LUT
 .rodata        0x0202358c        0xc c:/devkitPro/libnds/lib\libnds9.a(dldi.o)
                0x0202358c                DLDI_MAGIC_STRING_BACKWARDS
                0x02023594                DLDI_MAGIC_NUMBER
 .rodata        0x02023598       0x20 c:/devkitPro/libnds/lib\libnds9.a(dsi_sd.o)
                0x02023598                __io_dsisd
 .rodata        0x020235b8     0x2004 c:/devkitPro/libnds/lib\libnds9.a(default_font.bin.o)
                0x020235b8                default_font_bin
                0x020255b8                default_font_bin_size
                0x020255b8                default_font_bin_end
 .rodata        0x020255bc      0x104 c:/devkitpro/devkitarm/bin/../lib/gcc/arm-none-eabi/4.7.1/../../../../arm-none-eabi/lib/thumb\libg.a(lib_a-ctype_.o)
                0x020255bc                _ctype_
 .rodata        0x020256c0        0x4 c:/devkitpro/devkitarm/bin/../lib/gcc/arm-none-eabi/4.7.1/../../../../arm-none-eabi/lib/thumb\libg.a(lib_a-impure.o)
                0x020256c0                _global_impure_ptr
 .rodata        0x020256c4       0xf0 c:/devkitpro/devkitarm/bin/../lib/gcc/arm-none-eabi/4.7.1/../../../../arm-none-eabi/lib/thumb\libg.a(lib_a-locale.o)
 .rodata        0x020257b4       0xa8 c:/devkitpro/devkitarm/bin/../lib/gcc/arm-none-eabi/4.7.1/../../../../arm-none-eabi/lib/thumb\libg.a(lib_a-mbtowc_r.o)
 .rodata        0x0202585c       0x60 c:/devkitpro/devkitarm/bin/../lib/gcc/arm-none-eabi/4.7.1/../../../../arm-none-eabi/lib/thumb\libg.a(lib_a-mktime.o)
 .rodata        0x020258bc       0x68 c:/devkitpro/devkitarm/bin/../lib/gcc/arm-none-eabi/4.7.1/../../../../arm-none-eabi/lib/thumb\libg.a(lib_a-mktm_r.o)
 .rodata        0x02025924      0x340 c:/devkitpro/devkitarm/bin/../lib/gcc/arm-none-eabi/4.7.1/../../../../arm-none-eabi/lib/thumb\libg.a(lib_a-svfiscanf.o)
 .rodata        0x02025c64      0x184 c:/devkitpro/devkitarm/bin/../lib/gcc/arm-none-eabi/4.7.1/../../../../arm-none-eabi/lib/thumb\libg.a(lib_a-svfprintf.o)
 .rodata        0x02025de8      0x580 c:/devkitpro/devkitarm/bin/../lib/gcc/arm-none-eabi/4.7.1/../../../../arm-none-eabi/lib/thumb\libg.a(lib_a-towlower.o)
 .rodata        0x02026368      0x3e4 c:/devkitpro/devkitarm/bin/../lib/gcc/arm-none-eabi/4.7.1/../../../../arm-none-eabi/lib/thumb\libg.a(lib_a-towupper.o)
 .rodata        0x0202674c      0x184 c:/devkitpro/devkitarm/bin/../lib/gcc/arm-none-eabi/4.7.1/../../../../arm-none-eabi/lib/thumb\libg.a(lib_a-vfiprintf.o)
 .rodata        0x020268d0     0x34f0 c:/devkitpro/devkitarm/bin/../lib/gcc/arm-none-eabi/4.7.1/../../../../arm-none-eabi/lib/thumb\libg.a(lib_a-jp2uc.o)
 .rodata        0x02029dc0      0x128 c:/devkitpro/devkitarm/bin/../lib/gcc/arm-none-eabi/4.7.1/../../../../arm-none-eabi/lib/thumb\libg.a(lib_a-mprec.o)
                0x02029dd0                __mprec_tens
                0x02029e98                __mprec_tinytens
                0x02029ec0                __mprec_bigtens
 .rodata        0x02029ee8      0x184 c:/devkitpro/devkitarm/bin/../lib/gcc/arm-none-eabi/4.7.1/../../../../arm-none-eabi/lib/thumb\libg.a(lib_a-svfiprintf.o)
 .rodata        0x0202a06c       0x64 c:/devkitpro/devkitarm/bin/../lib/gcc/arm-none-eabi/4.7.1/../../../../arm-none-eabi/lib/thumb\libsysbase.a(iosupport.o)
                0x0202a06c                dotab_stdnull
 .rodata        0x0202a0d0        0xc c:/devkitpro/devkitarm/bin/../lib/gcc/arm-none-eabi/4.7.1/../../../../arm-none-eabi/lib/thumb\libsysbase.a(chdir.o)
                0x0202a0d0                DIRECTORY_PARENT
                0x0202a0d4                DIRECTORY_THIS
                0x0202a0d8                DIRECTORY_SEPARATOR
 *all.rodata*(*)
 *(.roda)
 *(.rodata.*)
 .rodata.str1.4
                0x0202a0dc       0x27 c:/Users/Derrick/Desktop/nflib_20120804/nflib/examples/graphics/backbuffer/nflib/lib\libnflib.a(nf_2d.o)
                                 0x28 (size before relaxing)
 *fill*         0x0202a103        0x1 ff
 .rodata.str1.4
                0x0202a104      0x61b c:/Users/Derrick/Desktop/nflib_20120804/nflib/examples/graphics/backbuffer/nflib/lib\libnflib.a(nf_basic.o)
                                0x628 (size before relaxing)
 *fill*         0x0202a71f        0x1 ff
 .rodata.str1.4
                0x0202a720       0x5e c:/Users/Derrick/Desktop/nflib_20120804/nflib/examples/graphics/backbuffer/nflib/lib\libnflib.a(nf_bitmapbg.o)
                                 0x60 (size before relaxing)
 *fill*         0x0202a77e        0x2 ff
 .rodata.str1.4
                0x0202a780       0x54 c:/Users/Derrick/Desktop/nflib_20120804/nflib/examples/graphics/backbuffer/nflib/lib\libnflib.a(nf_sprite256.o)
                                 0x7c (size before relaxing)
 .rodata.str1.4
                0x0202a7d4       0x4c c:/Users/Derrick/Desktop/nflib_20120804/nflib/examples/graphics/backbuffer/nflib/lib\libnflib.a(nf_tiledbg.o)
                                 0x6c (size before relaxing)
 .rodata.str1.4
                0x0202a820       0x17 c:/devkitPro/libnds/lib\libfilesystem.a(nitrofs.o)
                                 0x20 (size before relaxing)
 *fill*         0x0202a837        0x1 ff
 .rodata.str1.4
                0x0202a838       0x10 c:/devkitPro/libnds/lib\libfat.a(libfat.o)
                                 0x14 (size before relaxing)
 .rodata.str1.4
                0x00000000        0x8 c:/devkitPro/libnds/lib\libfat.a(directory.o)
 .rodata.str1.4
                0x00000000        0x8 c:/devkitPro/libnds/lib\libfat.a(disc.o)
 .rodata.str1.4
                0x0202a848        0x5 c:/devkitPro/libnds/lib\libfat.a(fatdir.o)
                                  0x8 (size before relaxing)
 *fill*         0x0202a84d        0x3 ff
 .rodata.str1.4
                0x0202a850       0x49 c:/devkitPro/libnds/lib\libnds9.a(console.o)
                                 0x4c (size before relaxing)
 *fill*         0x0202a899        0x3 ff
 .rodata.str1.4
                0x0202a89c        0x2 c:/devkitpro/devkitarm/bin/../lib/gcc/arm-none-eabi/4.7.1/../../../../arm-none-eabi/lib/thumb\libg.a(lib_a-impure.o)
                                  0x4 (size before relaxing)
 *fill*         0x0202a89e        0x2 ff
 .rodata.str1.4
                0x0202a8a0      0x120 c:/devkitpro/devkitarm/bin/../lib/gcc/arm-none-eabi/4.7.1/../../../../arm-none-eabi/lib/thumb\libg.a(lib_a-locale.o)
                                0x130 (size before relaxing)
 .rodata.str1.4
                0x00000000        0x4 c:/devkitpro/devkitarm/bin/../lib/gcc/arm-none-eabi/4.7.1/../../../../arm-none-eabi/lib/thumb\libg.a(lib_a-mbrtowc.o)
 .rodata.str1.4
                0x0202a9c0       0x42 c:/devkitpro/devkitarm/bin/../lib/gcc/arm-none-eabi/4.7.1/../../../../arm-none-eabi/lib/thumb\libg.a(lib_a-svfprintf.o)
                                 0x44 (size before relaxing)
 *fill*         0x0202aa02        0x2 ff
 .rodata.str1.4
                0x0202aa04        0x4 c:/devkitpro/devkitarm/bin/../lib/gcc/arm-none-eabi/4.7.1/../../../../arm-none-eabi/lib/thumb\libg.a(lib_a-tzvars.o)
 .rodata.str1.4
                0x00000000       0x30 c:/devkitpro/devkitarm/bin/../lib/gcc/arm-none-eabi/4.7.1/../../../../arm-none-eabi/lib/thumb\libg.a(lib_a-vfiprintf.o)
 .rodata.str1.4
                0x0202aa08       0x10 c:/devkitpro/devkitarm/bin/../lib/gcc/arm-none-eabi/4.7.1/../../../../arm-none-eabi/lib/thumb\libg.a(lib_a-dtoa.o)
                                 0x14 (size before relaxing)
 .rodata.str1.4
                0x00000000       0x14 c:/devkitpro/devkitarm/bin/../lib/gcc/arm-none-eabi/4.7.1/../../../../arm-none-eabi/lib/thumb\libg.a(lib_a-jp2uc.o)
 .rodata.str1.4
                0x00000000       0x30 c:/devkitpro/devkitarm/bin/../lib/gcc/arm-none-eabi/4.7.1/../../../../arm-none-eabi/lib/thumb\libg.a(lib_a-svfiprintf.o)
 .rodata.str1.4
                0x0202aa18        0x8 c:/devkitpro/devkitarm/bin/../lib/gcc/arm-none-eabi/4.7.1/../../../../arm-none-eabi/lib/thumb\libsysbase.a(iosupport.o)
 *(.gnu.linkonce.r*)
                0x0202aa20                . = ALIGN (0x4)

.rel.dyn        0x0202aa20        0x0
 .rel.iplt      0x00000000        0x0 c:/devkitpro/devkitarm/bin/../lib/gcc/arm-none-eabi/4.7.1/../../../../arm-none-eabi/lib/thumb/ds_arm9_crt0.o

.ARM.extab
 *(.ARM.extab* .gnu.linkonce.armextab.*)
                0x0202aa20                __exidx_start = .

ARM.exidx
 *(.ARM.exidx* .gnu.linkonce.armexidx.*)
                0x0202aa20                __exidx_end = .
                0x0202aa20                . = ALIGN (0x4)
                0x0202aa20                PROVIDE (__preinit_array_start, .)

.preinit_array
 *(.preinit_array)
                0x0202aa20                PROVIDE (__preinit_array_end, .)
                0x0202aa20                PROVIDE (__init_array_start, .)

.init_array     0x0202aa20        0x4
 *(SORT(.init_array.*))
 *(.init_array)
 .init_array    0x0202aa20        0x4 c:/devkitpro/devkitarm/bin/../lib/gcc/arm-none-eabi/4.7.1/thumb/crtbegin.o
                0x0202aa24                PROVIDE (__init_array_end, .)
                0x0202aa24                PROVIDE (__fini_array_start, .)

.fini_array     0x0202aa24        0x4
 *(.fini_array)
 .fini_array    0x0202aa24        0x4 c:/devkitpro/devkitarm/bin/../lib/gcc/arm-none-eabi/4.7.1/thumb/crtbegin.o
 *(SORT(.fini_array.*))
                0x0202aa28                PROVIDE (__fini_array_end, .)

.ctors          0x0202aa28        0x0
 *crtbegin.o(.ctors)
 *(EXCLUDE_FILE(*crtend.o) .ctors)
 *(SORT(.ctors.*))
 *(.ctors)
                0x0202aa28                . = ALIGN (0x4)

.dtors          0x0202aa28        0x0
 *crtbegin.o(.dtors)
 *(EXCLUDE_FILE(*crtend.o) .dtors)
 *(SORT(.dtors.*))
 *(.dtors)
                0x0202aa28                . = ALIGN (0x4)

.eh_frame       0x0202aa28        0x4
 *(.eh_frame)
 .eh_frame      0x0202aa28        0x0 c:/devkitpro/devkitarm/bin/../lib/gcc/arm-none-eabi/4.7.1/thumb/crtbegin.o
 .eh_frame      0x0202aa28        0x4 c:/devkitpro/devkitarm/bin/../lib/gcc/arm-none-eabi/4.7.1/thumb/crtend.o
                0x0202aa2c                . = ALIGN (0x4)

.gcc_except_table
                0x0202aa2c        0x0
 *(.gcc_except_table)
                0x0202aa2c                . = ALIGN (0x4)

.jcr            0x0202aa2c        0x4
 *(.jcr)
 .jcr           0x0202aa2c        0x0 c:/devkitpro/devkitarm/bin/../lib/gcc/arm-none-eabi/4.7.1/thumb/crtbegin.o
 .jcr           0x0202aa2c        0x4 c:/devkitpro/devkitarm/bin/../lib/gcc/arm-none-eabi/4.7.1/thumb/crtend.o

.got
 *(.got.plt)
 *(.got)
 *(.rel.got)

.ewram          0x0202aa30        0x0
                0x0202aa30                __ewram_start = ABSOLUTE (.)
 *(.ewram)
 *ewram.*(.text)
                0x0202aa30                . = ALIGN (0x4)

.data           0x0202aa30      0xfd4
                0x0202aa30                __data_start = ABSOLUTE (.)
 *(.data)
 .data          0x0202aa30        0x0 c:/devkitpro/devkitarm/bin/../lib/gcc/arm-none-eabi/4.7.1/../../../../arm-none-eabi/lib/thumb/ds_arm9_crt0.o
 .data          0x0202aa30        0x0 c:/devkitpro/devkitarm/bin/../lib/gcc/arm-none-eabi/4.7.1/thumb/crti.o
 .data          0x0202aa30        0x4 c:/devkitpro/devkitarm/bin/../lib/gcc/arm-none-eabi/4.7.1/thumb/crtbegin.o
                0x0202aa30                __dso_handle
 .data          0x0202aa34        0x0 main.o
 .data          0x0202aa34        0x0 c:/Users/Derrick/Desktop/nflib_20120804/nflib/examples/graphics/backbuffer/nflib/lib\libnflib.a(nf_2d.o)
 .data          0x0202aa34        0x0 c:/Users/Derrick/Desktop/nflib_20120804/nflib/examples/graphics/backbuffer/nflib/lib\libnflib.a(nf_basic.o)
 .data          0x0202aa34        0x0 c:/Users/Derrick/Desktop/nflib_20120804/nflib/examples/graphics/backbuffer/nflib/lib\libnflib.a(nf_bitmapbg.o)
 .data          0x0202aa34        0x0 c:/Users/Derrick/Desktop/nflib_20120804/nflib/examples/graphics/backbuffer/nflib/lib\libnflib.a(nf_sprite256.o)
 .data          0x0202aa34        0x0 c:/Users/Derrick/Desktop/nflib_20120804/nflib/examples/graphics/backbuffer/nflib/lib\libnflib.a(nf_tiledbg.o)
 .data          0x0202aa34       0x70 c:/devkitPro/libnds/lib\libfilesystem.a(nitrofs.o)
                0x0202aa38                syspaths
                0x0202aa40                nitroFSdevoptab
 .data          0x0202aaa4        0x0 c:/devkitPro/libnds/lib\libfat.a(libfat.o)
 .data          0x0202aaa4        0x0 c:/devkitPro/libnds/lib\libfat.a(partition.o)
 .data          0x0202aaa4        0x0 c:/devkitPro/libnds/lib\libfat.a(cache.o)
 .data          0x0202aaa4        0x0 c:/devkitPro/libnds/lib\libfat.a(directory.o)
 .data          0x0202aaa4        0x0 c:/devkitPro/libnds/lib\libfat.a(disc.o)
 .data          0x0202aaa4        0x0 c:/devkitPro/libnds/lib\libfat.a(fatdir.o)
 .data          0x0202aaa4        0x0 c:/devkitPro/libnds/lib\libfat.a(fatfile.o)
 .data          0x0202aaa4        0x0 c:/devkitPro/libnds/lib\libfat.a(file_allocation_table.o)
 .data          0x0202aaa4        0x0 c:/devkitPro/libnds/lib\libfat.a(filetime.o)
 .data          0x0202aaa4        0x0 c:/devkitPro/libnds/lib\libfat.a(lock.o)
 .data          0x0202aaa4       0x64 c:/devkitPro/libnds/lib\libnds9.a(console.o)
                0x0202aaa4                currentConsole
                0x0202aaa8                defaultConsole
 .data          0x0202ab08       0x30 c:/devkitPro/libnds/lib\libnds9.a(sprite.o)
                0x0202ab08                oamMain
                0x0202ab20                oamSub
 .data          0x0202ab38        0x0 c:/devkitPro/libnds/lib\libnds9.a(sprite_alloc.o)
 .data          0x0202ab38        0x0 c:/devkitPro/libnds/lib\libnds9.a(trig.o)
 .data          0x0202ab38        0x0 c:/devkitPro/libnds/lib\libnds9.a(video.o)
 .data          0x0202ab38        0x4 c:/devkitPro/libnds/lib\libnds9.a(dldi.o)
                0x0202ab38                io_dldi_data
 .data          0x0202ab3c        0x0 c:/devkitPro/libnds/lib\libnds9.a(dsi_sd.o)
 .data          0x0202ab3c        0x0 c:/devkitPro/libnds/lib\libnds9.a(initSystem.o)
 .data          0x0202ab3c        0x0 c:/devkitPro/libnds/lib\libnds9.a(card.o)
 .data          0x0202ab3c       0x10 c:/devkitPro/libnds/lib\libnds9.a(fifosystem.o)
                0x0202ab3c                fifo_buffer_free
                0x0202ab40                fifo_freewords
                0x0202ab44                fifo_send_queue
                0x0202ab48                fifo_receive_queue
 .data          0x0202ab4c        0x0 c:/devkitPro/libnds/lib\libnds9.a(interrupts.o)
 .data          0x0202ab4c        0x0 c:/devkitPro/libnds/lib\libnds9.a(libnds_exit.arm.o)
 .data          0x0202ab4c        0x0 c:/devkitPro/libnds/lib\libnds9.a(dcache.o)
 .data          0x0202ab4c        0x0 c:/devkitPro/libnds/lib\libnds9.a(dldi_stub.o)
 .data          0x0202ab4c        0x0 c:/devkitPro/libnds/lib\libnds9.a(mpu_setup.o)
 .data          0x0202ab4c        0x0 c:/devkitPro/libnds/lib\libnds9.a(biosCalls.o)
 .data          0x0202ab4c        0x0 c:/devkitPro/libnds/lib\libnds9.a(debugprint.o)
 .data          0x0202ab4c        0x0 c:/devkitPro/libnds/lib\libnds9.a(interruptDispatcher.o)
 .data          0x0202ab4c        0x0 c:/devkitPro/libnds/lib\libnds9.a(swiSoftReset.o)
 .data          0x0202ab4c        0x0 c:/devkitPro/libnds/lib\libnds9.a(default_font.bin.o)
 .data          0x0202ab4c       0x60 c:/devkitPro/libnds/lib\libnds9.a(background.o)
                0x0202ab4c                bgScrollTable
                0x0202ab6c                bgTransform
                0x0202ab8c                bgControl
 .data          0x0202abac        0x0 c:/devkitPro/libnds/lib\libnds9.a(system.o)
 .data          0x0202abac        0x0 c:/devkitpro/devkitarm/bin/../lib/gcc/arm-none-eabi/4.7.1/thumb\libgcc.a(_udivsi3.o)
 .data          0x0202abac        0x0 c:/devkitpro/devkitarm/bin/../lib/gcc/arm-none-eabi/4.7.1/thumb\libgcc.a(_divsi3.o)
 .data          0x0202abac        0x0 c:/devkitpro/devkitarm/bin/../lib/gcc/arm-none-eabi/4.7.1/thumb\libgcc.a(_dvmd_tls.o)
 .data          0x0202abac        0x0 c:/devkitpro/devkitarm/bin/../lib/gcc/arm-none-eabi/4.7.1/thumb\libgcc.a(_muldi3.o)
 .data          0x0202abac        0x0 c:/devkitpro/devkitarm/bin/../lib/gcc/arm-none-eabi/4.7.1/../../../../arm-none-eabi/lib/thumb\libg.a(lib_a-bsearch.o)
 .data          0x0202abac        0x0 c:/devkitpro/devkitarm/bin/../lib/gcc/arm-none-eabi/4.7.1/../../../../arm-none-eabi/lib/thumb\libg.a(lib_a-calloc.o)
 .data          0x0202abac        0x0 c:/devkitpro/devkitarm/bin/../lib/gcc/arm-none-eabi/4.7.1/../../../../arm-none-eabi/lib/thumb\libg.a(lib_a-callocr.o)
 .data          0x0202abac        0x4 c:/devkitpro/devkitarm/bin/../lib/gcc/arm-none-eabi/4.7.1/../../../../arm-none-eabi/lib/thumb\libg.a(lib_a-ctype_.o)
                0x0202abac                __ctype_ptr__
 .data          0x0202abb0        0x0 c:/devkitpro/devkitarm/bin/../lib/gcc/arm-none-eabi/4.7.1/../../../../arm-none-eabi/lib/thumb\libg.a(lib_a-fclose.o)
 .data          0x0202abb0        0x0 c:/devkitpro/devkitarm/bin/../lib/gcc/arm-none-eabi/4.7.1/../../../../arm-none-eabi/lib/thumb\libg.a(lib_a-fflush.o)
 .data          0x0202abb0        0x0 c:/devkitpro/devkitarm/bin/../lib/gcc/arm-none-eabi/4.7.1/../../../../arm-none-eabi/lib/thumb\libg.a(lib_a-findfp.o)
 .data          0x0202abb0        0x0 c:/devkitpro/devkitarm/bin/../lib/gcc/arm-none-eabi/4.7.1/../../../../arm-none-eabi/lib/thumb\libg.a(lib_a-fopen.o)
 .data          0x0202abb0        0x0 c:/devkitpro/devkitarm/bin/../lib/gcc/arm-none-eabi/4.7.1/../../../../arm-none-eabi/lib/thumb\libg.a(lib_a-fread.o)
 .data          0x0202abb0        0x0 c:/devkitpro/devkitarm/bin/../lib/gcc/arm-none-eabi/4.7.1/../../../../arm-none-eabi/lib/thumb\libg.a(lib_a-freer.o)
 .data          0x0202abb0        0x0 c:/devkitpro/devkitarm/bin/../lib/gcc/arm-none-eabi/4.7.1/../../../../arm-none-eabi/lib/thumb\libg.a(lib_a-fseek.o)
 .data          0x0202abb0        0x0 c:/devkitpro/devkitarm/bin/../lib/gcc/arm-none-eabi/4.7.1/../../../../arm-none-eabi/lib/thumb\libg.a(lib_a-ftell.o)
 .data          0x0202abb0        0x0 c:/devkitpro/devkitarm/bin/../lib/gcc/arm-none-eabi/4.7.1/../../../../arm-none-eabi/lib/thumb\libg.a(lib_a-fwalk.o)
 .data          0x0202abb0      0x430 c:/devkitpro/devkitarm/bin/../lib/gcc/arm-none-eabi/4.7.1/../../../../arm-none-eabi/lib/thumb\libg.a(lib_a-impure.o)
                0x0202abb0                _impure_ptr
 .data          0x0202afe0        0x0 c:/devkitpro/devkitarm/bin/../lib/gcc/arm-none-eabi/4.7.1/../../../../arm-none-eabi/lib/thumb\libg.a(lib_a-init.o)
 .data          0x0202afe0        0x0 c:/devkitpro/devkitarm/bin/../lib/gcc/arm-none-eabi/4.7.1/../../../../arm-none-eabi/lib/thumb\libg.a(lib_a-iprintf.o)
 .data          0x0202afe0        0x0 c:/devkitpro/devkitarm/bin/../lib/gcc/arm-none-eabi/4.7.1/../../../../arm-none-eabi/lib/thumb\libg.a(lib_a-lcltime_r.o)
 .data          0x0202afe0      0x17c c:/devkitpro/devkitarm/bin/../lib/gcc/arm-none-eabi/4.7.1/../../../../arm-none-eabi/lib/thumb\libg.a(lib_a-locale.o)
                0x0202afe0                __default_locale
                0x0202b100                __mb_cur_max
 .data          0x0202b15c        0x0 c:/devkitpro/devkitarm/bin/../lib/gcc/arm-none-eabi/4.7.1/../../../../arm-none-eabi/lib/thumb\libg.a(lib_a-makebuf.o)
 .data          0x0202b15c        0x0 c:/devkitpro/devkitarm/bin/../lib/gcc/arm-none-eabi/4.7.1/../../../../arm-none-eabi/lib/thumb\libg.a(lib_a-malloc.o)
 .data          0x0202b15c      0x410 c:/devkitpro/devkitarm/bin/../lib/gcc/arm-none-eabi/4.7.1/../../../../arm-none-eabi/lib/thumb\libg.a(lib_a-mallocr.o)
                0x0202b15c                __malloc_av_
                0x0202b564                __malloc_sbrk_base
                0x0202b568                __malloc_trim_threshold
 .data          0x0202b56c        0x0 c:/devkitpro/devkitarm/bin/../lib/gcc/arm-none-eabi/4.7.1/../../../../arm-none-eabi/lib/thumb\libg.a(lib_a-mbrtowc.o)
 .data          0x0202b56c        0x0 c:/devkitpro/devkitarm/bin/../lib/gcc/arm-none-eabi/4.7.1/../../../../arm-none-eabi/lib/thumb\libg.a(lib_a-mbsrtowcs.o)
 .data          0x0202b56c        0x4 c:/devkitpro/devkitarm/bin/../lib/gcc/arm-none-eabi/4.7.1/../../../../arm-none-eabi/lib/thumb\libg.a(lib_a-mbtowc_r.o)
                0x0202b56c                __mbtowc
 .data          0x0202b570        0x0 c:/devkitpro/devkitarm/bin/../lib/gcc/arm-none-eabi/4.7.1/../../../../arm-none-eabi/lib/thumb\libg.a(lib_a-memcmp.o)
 .data          0x0202b570        0x0 c:/devkitpro/devkitarm/bin/../lib/gcc/arm-none-eabi/4.7.1/../../../../arm-none-eabi/lib/thumb\libg.a(lib_a-memcpy-stub.o)
 .data          0x0202b570        0x0 c:/devkitpro/devkitarm/bin/../lib/gcc/arm-none-eabi/4.7.1/../../../../arm-none-eabi/lib/thumb\libg.a(lib_a-memmove.o)
 .data          0x0202b570        0x0 c:/devkitpro/devkitarm/bin/../lib/gcc/arm-none-eabi/4.7.1/../../../../arm-none-eabi/lib/thumb\libg.a(lib_a-memset.o)
 .data          0x0202b570        0x0 c:/devkitpro/devkitarm/bin/../lib/gcc/arm-none-eabi/4.7.1/../../../../arm-none-eabi/lib/thumb\libg.a(lib_a-mktime.o)
 .data          0x0202b570        0x0 c:/devkitpro/devkitarm/bin/../lib/gcc/arm-none-eabi/4.7.1/../../../../arm-none-eabi/lib/thumb\libg.a(lib_a-mktm_r.o)
 .data          0x0202b570        0x0 c:/devkitpro/devkitarm/bin/../lib/gcc/arm-none-eabi/4.7.1/../../../../arm-none-eabi/lib/thumb\libg.a(lib_a-mlock.o)
 .data          0x0202b570        0x0 c:/devkitpro/devkitarm/bin/../lib/gcc/arm-none-eabi/4.7.1/../../../../arm-none-eabi/lib/thumb\libg.a(lib_a-realloc.o)
 .data          0x0202b570        0x0 c:/devkitpro/devkitarm/bin/../lib/gcc/arm-none-eabi/4.7.1/../../../../arm-none-eabi/lib/thumb\libg.a(lib_a-reallocr.o)
 .data          0x0202b570        0x0 c:/devkitpro/devkitarm/bin/../lib/gcc/arm-none-eabi/4.7.1/../../../../arm-none-eabi/lib/thumb\libg.a(lib_a-refill.o)
 .data          0x0202b570        0x0 c:/devkitpro/devkitarm/bin/../lib/gcc/arm-none-eabi/4.7.1/../../../../arm-none-eabi/lib/thumb\libg.a(lib_a-rewind.o)
 .data          0x0202b570        0x0 c:/devkitpro/devkitarm/bin/../lib/gcc/arm-none-eabi/4.7.1/../../../../arm-none-eabi/lib/thumb\libg.a(lib_a-setvbuf.o)
 .data          0x0202b570        0x0 c:/devkitpro/devkitarm/bin/../lib/gcc/arm-none-eabi/4.7.1/../../../../arm-none-eabi/lib/thumb\libg.a(lib_a-siscanf.o)
 .data          0x0202b570        0x0 c:/devkitpro/devkitarm/bin/../lib/gcc/arm-none-eabi/4.7.1/../../../../arm-none-eabi/lib/thumb\libg.a(lib_a-sprintf.o)
 .data          0x0202b570        0x0 c:/devkitpro/devkitarm/bin/../lib/gcc/arm-none-eabi/4.7.1/../../../../arm-none-eabi/lib/thumb\libg.a(lib_a-stdio.o)
 .data          0x0202b570        0x0 c:/devkitpro/devkitarm/bin/../lib/gcc/arm-none-eabi/4.7.1/../../../../arm-none-eabi/lib/thumb\libg.a(lib_a-stpcpy.o)
 .data          0x0202b570        0x0 c:/devkitpro/devkitarm/bin/../lib/gcc/arm-none-eabi/4.7.1/../../../../arm-none-eabi/lib/thumb\libg.a(lib_a-strcasecmp.o)
 .data          0x0202b570        0x0 c:/devkitpro/devkitarm/bin/../lib/gcc/arm-none-eabi/4.7.1/../../../../arm-none-eabi/lib/thumb\libg.a(lib_a-strcat.o)
 .data          0x0202b570        0x0 c:/devkitpro/devkitarm/bin/../lib/gcc/arm-none-eabi/4.7.1/../../../../arm-none-eabi/lib/thumb\libg.a(lib_a-strchr.o)
 .data          0x0202b570        0x0 c:/devkitpro/devkitarm/bin/../lib/gcc/arm-none-eabi/4.7.1/../../../../arm-none-eabi/lib/thumb\libg.a(lib_a-strcmp.o)
 .data          0x0202b570        0x0 c:/devkitpro/devkitarm/bin/../lib/gcc/arm-none-eabi/4.7.1/../../../../arm-none-eabi/lib/thumb\libg.a(lib_a-strcpy.o)
 .data          0x0202b570        0x0 c:/devkitpro/devkitarm/bin/../lib/gcc/arm-none-eabi/4.7.1/../../../../arm-none-eabi/lib/thumb\libg.a(lib_a-strlcpy.o)
 .data          0x0202b570        0x0 c:/devkitpro/devkitarm/bin/../lib/gcc/arm-none-eabi/4.7.1/../../../../arm-none-eabi/lib/thumb\libg.a(lib_a-strlen.o)
 .data          0x0202b570        0x0 c:/devkitpro/devkitarm/bin/../lib/gcc/arm-none-eabi/4.7.1/../../../../arm-none-eabi/lib/thumb\libg.a(lib_a-strncasecmp.o)
 .data          0x0202b570        0x0 c:/devkitpro/devkitarm/bin/../lib/gcc/arm-none-eabi/4.7.1/../../../../arm-none-eabi/lib/thumb\libg.a(lib_a-strncmp.o)
 .data          0x0202b570        0x0 c:/devkitpro/devkitarm/bin/../lib/gcc/arm-none-eabi/4.7.1/../../../../arm-none-eabi/lib/thumb\libg.a(lib_a-strncpy.o)
 .data          0x0202b570        0x0 c:/devkitpro/devkitarm/bin/../lib/gcc/arm-none-eabi/4.7.1/../../../../arm-none-eabi/lib/thumb\libg.a(lib_a-strnlen.o)
 .data          0x0202b570        0x0 c:/devkitpro/devkitarm/bin/../lib/gcc/arm-none-eabi/4.7.1/../../../../arm-none-eabi/lib/thumb\libg.a(lib_a-strpbrk.o)
 .data          0x0202b570        0x0 c:/devkitpro/devkitarm/bin/../lib/gcc/arm-none-eabi/4.7.1/../../../../arm-none-eabi/lib/thumb\libg.a(lib_a-strrchr.o)
 .data          0x0202b570        0x0 c:/devkitpro/devkitarm/bin/../lib/gcc/arm-none-eabi/4.7.1/../../../../arm-none-eabi/lib/thumb\libg.a(lib_a-strtol.o)
 .data          0x0202b570        0x0 c:/devkitpro/devkitarm/bin/../lib/gcc/arm-none-eabi/4.7.1/../../../../arm-none-eabi/lib/thumb\libg.a(lib_a-svfiscanf.o)
 .data          0x0202b570        0x0 c:/devkitpro/devkitarm/bin/../lib/gcc/arm-none-eabi/4.7.1/../../../../arm-none-eabi/lib/thumb\libg.a(lib_a-svfprintf.o)
 .data          0x0202b570        0x0 c:/devkitpro/devkitarm/bin/../lib/gcc/arm-none-eabi/4.7.1/../../../../arm-none-eabi/lib/thumb\libg.a(lib_a-sysclose.o)
 .data          0x0202b570        0x0 c:/devkitpro/devkitarm/bin/../lib/gcc/arm-none-eabi/4.7.1/../../../../arm-none-eabi/lib/thumb\libg.a(lib_a-syslseek.o)
 .data          0x0202b570        0x0 c:/devkitpro/devkitarm/bin/../lib/gcc/arm-none-eabi/4.7.1/../../../../arm-none-eabi/lib/thumb\libg.a(lib_a-sysopen.o)
 .data          0x0202b570        0x0 c:/devkitpro/devkitarm/bin/../lib/gcc/arm-none-eabi/4.7.1/../../../../arm-none-eabi/lib/thumb\libg.a(lib_a-sysread.o)
 .data          0x0202b570        0x0 c:/devkitpro/devkitarm/bin/../lib/gcc/arm-none-eabi/4.7.1/../../../../arm-none-eabi/lib/thumb\libg.a(lib_a-time.o)
 .data          0x0202b570        0x0 c:/devkitpro/devkitarm/bin/../lib/gcc/arm-none-eabi/4.7.1/../../../../arm-none-eabi/lib/thumb\libg.a(lib_a-towlower.o)
 .data          0x0202b570        0x0 c:/devkitpro/devkitarm/bin/../lib/gcc/arm-none-eabi/4.7.1/../../../../arm-none-eabi/lib/thumb\libg.a(lib_a-towupper.o)
 .data          0x0202b570        0x0 c:/devkitpro/devkitarm/bin/../lib/gcc/arm-none-eabi/4.7.1/../../../../arm-none-eabi/lib/thumb\libg.a(lib_a-tzlock.o)
 .data          0x0202b570        0x8 c:/devkitpro/devkitarm/bin/../lib/gcc/arm-none-eabi/4.7.1/../../../../arm-none-eabi/lib/thumb\libg.a(lib_a-tzvars.o)
                0x0202b570                _tzname
 .data          0x0202b578        0x0 c:/devkitpro/devkitarm/bin/../lib/gcc/arm-none-eabi/4.7.1/../../../../arm-none-eabi/lib/thumb\libg.a(lib_a-ungetc.o)
 .data          0x0202b578        0x0 c:/devkitpro/devkitarm/bin/../lib/gcc/arm-none-eabi/4.7.1/../../../../arm-none-eabi/lib/thumb\libg.a(lib_a-vfiprintf.o)
 .data          0x0202b578        0x0 c:/devkitpro/devkitarm/bin/../lib/gcc/arm-none-eabi/4.7.1/../../../../arm-none-eabi/lib/thumb\libg.a(lib_a-wcrtomb.o)
 .data          0x0202b578        0x0 c:/devkitpro/devkitarm/bin/../lib/gcc/arm-none-eabi/4.7.1/../../../../arm-none-eabi/lib/thumb\libg.a(lib_a-wcsrtombs.o)
 .data          0x0202b578        0x0 c:/devkitpro/devkitarm/bin/../lib/gcc/arm-none-eabi/4.7.1/../../../../arm-none-eabi/lib/thumb\libg.a(lib_a-wctob.o)
 .data          0x0202b578        0x4 c:/devkitpro/devkitarm/bin/../lib/gcc/arm-none-eabi/4.7.1/../../../../arm-none-eabi/lib/thumb\libg.a(lib_a-wctomb_r.o)
                0x0202b578                __wctomb
 .data          0x0202b57c        0x0 c:/devkitpro/devkitarm/bin/../lib/gcc/arm-none-eabi/4.7.1/../../../../arm-none-eabi/lib/thumb\libg.a(lib_a-wsetup.o)
 .data          0x0202b57c        0x0 c:/devkitpro/devkitarm/bin/../lib/gcc/arm-none-eabi/4.7.1/../../../../arm-none-eabi/lib/thumb\libg.a(lib_a-div.o)
 .data          0x0202b57c        0x0 c:/devkitpro/devkitarm/bin/../lib/gcc/arm-none-eabi/4.7.1/../../../../arm-none-eabi/lib/thumb\libg.a(lib_a-dtoa.o)
 .data          0x0202b57c        0x0 c:/devkitpro/devkitarm/bin/../lib/gcc/arm-none-eabi/4.7.1/../../../../arm-none-eabi/lib/thumb\libg.a(lib_a-flags.o)
 .data          0x0202b57c        0x0 c:/devkitpro/devkitarm/bin/../lib/gcc/arm-none-eabi/4.7.1/../../../../arm-none-eabi/lib/thumb\libg.a(lib_a-fputwc.o)
 .data          0x0202b57c        0x0 c:/devkitpro/devkitarm/bin/../lib/gcc/arm-none-eabi/4.7.1/../../../../arm-none-eabi/lib/thumb\libg.a(lib_a-fvwrite.o)
 .data          0x0202b57c        0x0 c:/devkitpro/devkitarm/bin/../lib/gcc/arm-none-eabi/4.7.1/../../../../arm-none-eabi/lib/thumb\libg.a(lib_a-getenv_r.o)
 .data          0x0202b57c       0x40 c:/devkitpro/devkitarm/bin/../lib/gcc/arm-none-eabi/4.7.1/../../../../arm-none-eabi/lib/thumb\libg.a(lib_a-gettzinfo.o)
 .data          0x0202b5bc        0x0 c:/devkitpro/devkitarm/bin/../lib/gcc/arm-none-eabi/4.7.1/../../../../arm-none-eabi/lib/thumb\libg.a(lib_a-iswspace.o)
 .data          0x0202b5bc        0x0 c:/devkitpro/devkitarm/bin/../lib/gcc/arm-none-eabi/4.7.1/../../../../arm-none-eabi/lib/thumb\libg.a(lib_a-jp2uc.o)
 .data          0x0202b5bc        0x0 c:/devkitpro/devkitarm/bin/../lib/gcc/arm-none-eabi/4.7.1/../../../../arm-none-eabi/lib/thumb\libg.a(lib_a-mbsnrtowcs.o)
 .data          0x0202b5bc        0x0 c:/devkitpro/devkitarm/bin/../lib/gcc/arm-none-eabi/4.7.1/../../../../arm-none-eabi/lib/thumb\libg.a(lib_a-memchr-stub.o)
 .data          0x0202b5bc        0x0 c:/devkitpro/devkitarm/bin/../lib/gcc/arm-none-eabi/4.7.1/../../../../arm-none-eabi/lib/thumb\libg.a(lib_a-mprec.o)
 .data          0x0202b5bc        0x0 c:/devkitpro/devkitarm/bin/../lib/gcc/arm-none-eabi/4.7.1/../../../../arm-none-eabi/lib/thumb\libg.a(lib_a-sccl.o)
 .data          0x0202b5bc        0x0 c:/devkitpro/devkitarm/bin/../lib/gcc/arm-none-eabi/4.7.1/../../../../arm-none-eabi/lib/thumb\libg.a(lib_a-s_fpclassify.o)
 .data          0x0202b5bc        0x0 c:/devkitpro/devkitarm/bin/../lib/gcc/arm-none-eabi/4.7.1/../../../../arm-none-eabi/lib/thumb\libg.a(lib_a-strtoll_r.o)
 .data          0x0202b5bc        0x0 c:/devkitpro/devkitarm/bin/../lib/gcc/arm-none-eabi/4.7.1/../../../../arm-none-eabi/lib/thumb\libg.a(lib_a-strtoull_r.o)
 .data          0x0202b5bc        0x0 c:/devkitpro/devkitarm/bin/../lib/gcc/arm-none-eabi/4.7.1/../../../../arm-none-eabi/lib/thumb\libg.a(lib_a-strtoul.o)
 .data          0x0202b5bc        0x0 c:/devkitpro/devkitarm/bin/../lib/gcc/arm-none-eabi/4.7.1/../../../../arm-none-eabi/lib/thumb\libg.a(lib_a-svfiprintf.o)
 .data          0x0202b5bc        0x0 c:/devkitpro/devkitarm/bin/../lib/gcc/arm-none-eabi/4.7.1/../../../../arm-none-eabi/lib/thumb\libg.a(lib_a-wbuf.o)
 .data          0x0202b5bc        0x0 c:/devkitpro/devkitarm/bin/../lib/gcc/arm-none-eabi/4.7.1/../../../../arm-none-eabi/lib/thumb\libg.a(lib_a-wcsnrtombs.o)
 .data          0x0202b5bc        0x4 c:/devkitpro/devkitarm/bin/../lib/gcc/arm-none-eabi/4.7.1/../../../../arm-none-eabi/lib/thumb\libg.a(lib_a-environ.o)
                0x0202b5bc                environ
 .data          0x0202b5c0        0x0 c:/devkitpro/devkitarm/bin/../lib/gcc/arm-none-eabi/4.7.1/../../../../arm-none-eabi/lib/thumb\libg.a(lib_a-envlock.o)
 .data          0x0202b5c0       0x44 c:/devkitpro/devkitarm/bin/../lib/gcc/arm-none-eabi/4.7.1/../../../../arm-none-eabi/lib/thumb\libsysbase.a(iosupport.o)
                0x0202b5c4                devoptab_list
 .data          0x0202b604        0x0 c:/devkitpro/devkitarm/bin/../lib/gcc/arm-none-eabi/4.7.1/../../../../arm-none-eabi/lib/thumb\libsysbase.a(close.o)
 .data          0x0202b604        0x0 c:/devkitpro/devkitarm/bin/../lib/gcc/arm-none-eabi/4.7.1/../../../../arm-none-eabi/lib/thumb\libsysbase.a(fstat.o)
 .data          0x0202b604        0x0 c:/devkitpro/devkitarm/bin/../lib/gcc/arm-none-eabi/4.7.1/../../../../arm-none-eabi/lib/thumb\libsysbase.a(isatty.o)
 .data          0x0202b604        0x0 c:/devkitpro/devkitarm/bin/../lib/gcc/arm-none-eabi/4.7.1/../../../../arm-none-eabi/lib/thumb\libsysbase.a(lseek.o)
 .data          0x0202b604        0x0 c:/devkitpro/devkitarm/bin/../lib/gcc/arm-none-eabi/4.7.1/../../../../arm-none-eabi/lib/thumb\libsysbase.a(open.o)
 .data          0x0202b604        0x0 c:/devkitpro/devkitarm/bin/../lib/gcc/arm-none-eabi/4.7.1/../../../../arm-none-eabi/lib/thumb\libsysbase.a(read.o)
 .data          0x0202b604        0x0 c:/devkitpro/devkitarm/bin/../lib/gcc/arm-none-eabi/4.7.1/../../../../arm-none-eabi/lib/thumb\libsysbase.a(sbrk.o)
 .data          0x0202b604        0x0 c:/devkitpro/devkitarm/bin/../lib/gcc/arm-none-eabi/4.7.1/../../../../arm-none-eabi/lib/thumb\libsysbase.a(times.o)
 .data          0x0202b604        0x0 c:/devkitpro/devkitarm/bin/../lib/gcc/arm-none-eabi/4.7.1/../../../../arm-none-eabi/lib/thumb\libsysbase.a(write.o)
 .data          0x0202b604        0x0 c:/devkitpro/devkitarm/bin/../lib/gcc/arm-none-eabi/4.7.1/../../../../arm-none-eabi/lib/thumb\libsysbase.a(malloc_vars.o)
 .data          0x0202b604      0x400 c:/devkitpro/devkitarm/bin/../lib/gcc/arm-none-eabi/4.7.1/../../../../arm-none-eabi/lib/thumb\libsysbase.a(chdir.o)
 .data          0x0202ba04        0x0 c:/devkitpro/devkitarm/bin/../lib/gcc/arm-none-eabi/4.7.1/../../../../arm-none-eabi/lib/thumb\libsysbase.a(build_argv.o)
 .data          0x0202ba04        0x0 c:/devkitpro/devkitarm/bin/../lib/gcc/arm-none-eabi/4.7.1/../../../../arm-none-eabi/lib/thumb\libsysbase.a(syscall_support.o)
 .data          0x0202ba04        0x0 c:/devkitpro/devkitarm/bin/../lib/gcc/arm-none-eabi/4.7.1/../../../../arm-none-eabi/lib/thumb\libsysbase.a(handle_manager.o)
 .data          0x0202ba04        0x0 c:/devkitpro/devkitarm/bin/../lib/gcc/arm-none-eabi/4.7.1/thumb\libgcc.a(_arm_addsubdf3.o)
 .data          0x0202ba04        0x0 c:/devkitpro/devkitarm/bin/../lib/gcc/arm-none-eabi/4.7.1/thumb\libgcc.a(_arm_muldivdf3.o)
 .data          0x0202ba04        0x0 c:/devkitpro/devkitarm/bin/../lib/gcc/arm-none-eabi/4.7.1/thumb\libgcc.a(_arm_cmpdf2.o)
 .data          0x0202ba04        0x0 c:/devkitpro/devkitarm/bin/../lib/gcc/arm-none-eabi/4.7.1/thumb\libgcc.a(_arm_fixdfsi.o)
 .data          0x0202ba04        0x0 c:/devkitpro/devkitarm/bin/../lib/gcc/arm-none-eabi/4.7.1/thumb\libgcc.a(_aeabi_uldivmod.o)
 .data          0x0202ba04        0x0 c:/devkitpro/devkitarm/bin/../lib/gcc/arm-none-eabi/4.7.1/thumb\libgcc.a(bpabi.o)
 .data          0x0202ba04        0x0 c:/devkitpro/devkitarm/bin/../lib/gcc/arm-none-eabi/4.7.1/thumb\libgcc.a(_divdi3.o)
 .data          0x0202ba04        0x0 c:/devkitpro/devkitarm/bin/../lib/gcc/arm-none-eabi/4.7.1/thumb\libgcc.a(_udivdi3.o)
 .data          0x0202ba04        0x0 c:/devkitpro/devkitarm/bin/../lib/gcc/arm-none-eabi/4.7.1/thumb\libgcc.a(_clzsi2.o)
 .data          0x0202ba04        0x0 c:/devkitpro/devkitarm/bin/../lib/gcc/arm-none-eabi/4.7.1/../../../../arm-none-eabi/lib/thumb\libg.a(lib_a-errno.o)
 .data          0x0202ba04        0x0 c:/devkitpro/devkitarm/bin/../lib/gcc/arm-none-eabi/4.7.1/thumb/crtend.o
 .data          0x0202ba04        0x0 c:/devkitpro/devkitarm/bin/../lib/gcc/arm-none-eabi/4.7.1/thumb/crtn.o
 *(.data.*)
 *(.gnu.linkonce.d*)
                0x0202ba04                . = ALIGN (0x4)
                0x0202ba04                __data_end = ABSOLUTE (.)
                0x0202ba04                __dtcm_lma = .
                0x0202ba04                __bss_vma = .

.igot.plt       0x0202ba04        0x0
 .igot.plt      0x00000000        0x0 c:/devkitpro/devkitarm/bin/../lib/gcc/arm-none-eabi/4.7.1/../../../../arm-none-eabi/lib/thumb/ds_arm9_crt0.o

.tm_clone_table
                0x0202ba04        0x0
 .tm_clone_table
                0x0202ba04        0x0 c:/devkitpro/devkitarm/bin/../lib/gcc/arm-none-eabi/4.7.1/thumb/crtbegin.o
 .tm_clone_table
                0x0202ba04        0x0 c:/devkitpro/devkitarm/bin/../lib/gcc/arm-none-eabi/4.7.1/thumb/crtend.o

.dtcm           0x0b000000        0x0 load address 0x0202ba04
 *(.dtcm)
 *(.dtcm.*)
                0x0b000000                . = ALIGN (0x4)
                0x0b000000                __dtcm_end = ABSOLUTE (.)
                0x0202ba04                __itcm_lma = (__dtcm_lma + SIZEOF (.dtcm))

.itcm           0x01000100      0x194 load address 0x0202ba04
 *(.itcm)
 .itcm          0x01000100       0xc8 c:/devkitPro/libnds/lib\libnds9.a(interrupts.o)
                0x01000100                irqTable
 .itcm          0x010001c8       0xcc c:/devkitPro/libnds/lib\libnds9.a(interruptDispatcher.o)
                0x010001c8                IntrMain
 *itcm.*(.text)
                0x01000294                . = ALIGN (0x4)
                0x01000294                __itcm_end = ABSOLUTE (.)
                0x0202bb98                __vectors_lma = (__itcm_lma + SIZEOF (.itcm))

.vectors        0x01000000        0x0 load address 0x0202bb98
 *(.vectors)
 *vectors.*(.text)
                0x01000000                . = ALIGN (0x4)
                0x01000000                __vectors_end = ABSOLUTE (.)

.sbss           0x0b000000        0x0
                0x0b000000                __sbss_start = ABSOLUTE (.)
                0x0b000000                __sbss_start__ = ABSOLUTE (.)
 *(.sbss)
                0x0b000000                . = ALIGN (0x4)
                0x0b000000                __sbss_end = ABSOLUTE (.)

.bss            0x0202ba04     0x95f0
                0x0202ba04                __bss_start = ABSOLUTE (.)
                0x0202ba04                __bss_start__ = ABSOLUTE (.)
 *(.dynbss)
 *(.gnu.linkonce.b*)
 *(.bss*)
 .bss           0x0202ba04        0x0 c:/devkitpro/devkitarm/bin/../lib/gcc/arm-none-eabi/4.7.1/../../../../arm-none-eabi/lib/thumb/ds_arm9_crt0.o
 .bss           0x0202ba04        0x0 c:/devkitpro/devkitarm/bin/../lib/gcc/arm-none-eabi/4.7.1/thumb/crti.o
 .bss           0x0202ba04       0x1c c:/devkitpro/devkitarm/bin/../lib/gcc/arm-none-eabi/4.7.1/thumb/crtbegin.o
 .bss           0x0202ba20        0x0 main.o
 .bss           0x0202ba20        0x0 c:/Users/Derrick/Desktop/nflib_20120804/nflib/examples/graphics/backbuffer/nflib/lib\libnflib.a(nf_2d.o)
 .bss           0x0202ba20        0x0 c:/Users/Derrick/Desktop/nflib_20120804/nflib/examples/graphics/backbuffer/nflib/lib\libnflib.a(nf_basic.o)
 .bss           0x0202ba20        0x0 c:/Users/Derrick/Desktop/nflib_20120804/nflib/examples/graphics/backbuffer/nflib/lib\libnflib.a(nf_bitmapbg.o)
 .bss           0x0202ba20        0x0 c:/Users/Derrick/Desktop/nflib_20120804/nflib/examples/graphics/backbuffer/nflib/lib\libnflib.a(nf_sprite256.o)
 .bss           0x0202ba20        0x0 c:/Users/Derrick/Desktop/nflib_20120804/nflib/examples/graphics/backbuffer/nflib/lib\libnflib.a(nf_tiledbg.o)
 .bss           0x0202ba20      0x214 c:/devkitPro/libnds/lib\libfilesystem.a(nitrofs.o)
 .bss           0x0202bc34        0x0 c:/devkitPro/libnds/lib\libfat.a(libfat.o)
 .bss           0x0202bc34        0x0 c:/devkitPro/libnds/lib\libfat.a(partition.o)
 .bss           0x0202bc34        0x4 c:/devkitPro/libnds/lib\libfat.a(cache.o)
 .bss           0x0202bc38        0x0 c:/devkitPro/libnds/lib\libfat.a(directory.o)
 .bss           0x0202bc38        0x0 c:/devkitPro/libnds/lib\libfat.a(disc.o)
 .bss           0x0202bc38        0x0 c:/devkitPro/libnds/lib\libfat.a(fatdir.o)
 .bss           0x0202bc38        0x0 c:/devkitPro/libnds/lib\libfat.a(fatfile.o)
 .bss           0x0202bc38        0x0 c:/devkitPro/libnds/lib\libfat.a(file_allocation_table.o)
 .bss           0x0202bc38        0x0 c:/devkitPro/libnds/lib\libfat.a(filetime.o)
 .bss           0x0202bc38        0x0 c:/devkitPro/libnds/lib\libfat.a(lock.o)
 .bss           0x0202bc38        0x0 c:/devkitPro/libnds/lib\libnds9.a(console.o)
 .bss           0x0202bc38        0x0 c:/devkitPro/libnds/lib\libnds9.a(sprite.o)
 .bss           0x0202bc38        0x0 c:/devkitPro/libnds/lib\libnds9.a(sprite_alloc.o)
 .bss           0x0202bc38        0x0 c:/devkitPro/libnds/lib\libnds9.a(trig.o)
 .bss           0x0202bc38        0x0 c:/devkitPro/libnds/lib\libnds9.a(video.o)
 .bss           0x0202bc38        0x0 c:/devkitPro/libnds/lib\libnds9.a(dldi.o)
 .bss           0x0202bc38        0x0 c:/devkitPro/libnds/lib\libnds9.a(dsi_sd.o)
 .bss           0x0202bc38        0x0 c:/devkitPro/libnds/lib\libnds9.a(initSystem.o)
 .bss           0x0202bc38        0x0 c:/devkitPro/libnds/lib\libnds9.a(card.o)
 .bss           0x0202bc38        0x8 c:/devkitPro/libnds/lib\libnds9.a(fifosystem.o)
                0x0202bc3c                processing
 .bss           0x0202bc40        0x0 c:/devkitPro/libnds/lib\libnds9.a(interrupts.o)
 .bss           0x0202bc40        0x0 c:/devkitPro/libnds/lib\libnds9.a(libnds_exit.arm.o)
 .bss           0x0202bc40        0x0 c:/devkitPro/libnds/lib\libnds9.a(dcache.o)
 .bss           0x0202bc40        0x0 c:/devkitPro/libnds/lib\libnds9.a(dldi_stub.o)
 .bss           0x0202bc40        0x0 c:/devkitPro/libnds/lib\libnds9.a(mpu_setup.o)
 .bss           0x0202bc40        0x0 c:/devkitPro/libnds/lib\libnds9.a(biosCalls.o)
 .bss           0x0202bc40        0x0 c:/devkitPro/libnds/lib\libnds9.a(debugprint.o)
 .bss           0x0202bc40        0x0 c:/devkitPro/libnds/lib\libnds9.a(interruptDispatcher.o)
 .bss           0x0202bc40        0x0 c:/devkitPro/libnds/lib\libnds9.a(swiSoftReset.o)
 .bss           0x0202bc40        0x0 c:/devkitPro/libnds/lib\libnds9.a(default_font.bin.o)
 .bss           0x0202bc40        0x0 c:/devkitPro/libnds/lib\libnds9.a(background.o)
 .bss           0x0202bc40        0x4 c:/devkitPro/libnds/lib\libnds9.a(system.o)
 .bss           0x0202bc44        0x0 c:/devkitpro/devkitarm/bin/../lib/gcc/arm-none-eabi/4.7.1/thumb\libgcc.a(_udivsi3.o)
 .bss           0x0202bc44        0x0 c:/devkitpro/devkitarm/bin/../lib/gcc/arm-none-eabi/4.7.1/thumb\libgcc.a(_divsi3.o)
 .bss           0x0202bc44        0x0 c:/devkitpro/devkitarm/bin/../lib/gcc/arm-none-eabi/4.7.1/thumb\libgcc.a(_dvmd_tls.o)
 .bss           0x0202bc44        0x0 c:/devkitpro/devkitarm/bin/../lib/gcc/arm-none-eabi/4.7.1/thumb\libgcc.a(_muldi3.o)
 .bss           0x0202bc44        0x0 c:/devkitpro/devkitarm/bin/../lib/gcc/arm-none-eabi/4.7.1/../../../../arm-none-eabi/lib/thumb\libg.a(lib_a-bsearch.o)
 .bss           0x0202bc44        0x0 c:/devkitpro/devkitarm/bin/../lib/gcc/arm-none-eabi/4.7.1/../../../../arm-none-eabi/lib/thumb\libg.a(lib_a-calloc.o)
 .bss           0x0202bc44        0x0 c:/devkitpro/devkitarm/bin/../lib/gcc/arm-none-eabi/4.7.1/../../../../arm-none-eabi/lib/thumb\libg.a(lib_a-callocr.o)
 .bss           0x0202bc44        0x0 c:/devkitpro/devkitarm/bin/../lib/gcc/arm-none-eabi/4.7.1/../../../../arm-none-eabi/lib/thumb\libg.a(lib_a-ctype_.o)
 .bss           0x0202bc44        0x0 c:/devkitpro/devkitarm/bin/../lib/gcc/arm-none-eabi/4.7.1/../../../../arm-none-eabi/lib/thumb\libg.a(lib_a-fclose.o)
 .bss           0x0202bc44        0x0 c:/devkitpro/devkitarm/bin/../lib/gcc/arm-none-eabi/4.7.1/../../../../arm-none-eabi/lib/thumb\libg.a(lib_a-fflush.o)
 .bss           0x0202bc44        0x0 c:/devkitpro/devkitarm/bin/../lib/gcc/arm-none-eabi/4.7.1/../../../../arm-none-eabi/lib/thumb\libg.a(lib_a-findfp.o)
 .bss           0x0202bc44        0x0 c:/devkitpro/devkitarm/bin/../lib/gcc/arm-none-eabi/4.7.1/../../../../arm-none-eabi/lib/thumb\libg.a(lib_a-fopen.o)
 .bss           0x0202bc44        0x0 c:/devkitpro/devkitarm/bin/../lib/gcc/arm-none-eabi/4.7.1/../../../../arm-none-eabi/lib/thumb\libg.a(lib_a-fread.o)
 .bss           0x0202bc44        0x0 c:/devkitpro/devkitarm/bin/../lib/gcc/arm-none-eabi/4.7.1/../../../../arm-none-eabi/lib/thumb\libg.a(lib_a-freer.o)
 .bss           0x0202bc44        0x0 c:/devkitpro/devkitarm/bin/../lib/gcc/arm-none-eabi/4.7.1/../../../../arm-none-eabi/lib/thumb\libg.a(lib_a-fseek.o)
 .bss           0x0202bc44        0x0 c:/devkitpro/devkitarm/bin/../lib/gcc/arm-none-eabi/4.7.1/../../../../arm-none-eabi/lib/thumb\libg.a(lib_a-ftell.o)
 .bss           0x0202bc44        0x0 c:/devkitpro/devkitarm/bin/../lib/gcc/arm-none-eabi/4.7.1/../../../../arm-none-eabi/lib/thumb\libg.a(lib_a-fwalk.o)
 .bss           0x0202bc44        0x0 c:/devkitpro/devkitarm/bin/../lib/gcc/arm-none-eabi/4.7.1/../../../../arm-none-eabi/lib/thumb\libg.a(lib_a-impure.o)
 .bss           0x0202bc44        0x0 c:/devkitpro/devkitarm/bin/../lib/gcc/arm-none-eabi/4.7.1/../../../../arm-none-eabi/lib/thumb\libg.a(lib_a-init.o)
 .bss           0x0202bc44        0x0 c:/devkitpro/devkitarm/bin/../lib/gcc/arm-none-eabi/4.7.1/../../../../arm-none-eabi/lib/thumb\libg.a(lib_a-iprintf.o)
 .bss           0x0202bc44        0x0 c:/devkitpro/devkitarm/bin/../lib/gcc/arm-none-eabi/4.7.1/../../../../arm-none-eabi/lib/thumb\libg.a(lib_a-lcltime_r.o)
 .bss           0x0202bc44      0x2b8 c:/devkitpro/devkitarm/bin/../lib/gcc/arm-none-eabi/4.7.1/../../../../arm-none-eabi/lib/thumb\libg.a(lib_a-locale.o)
                0x0202bef0                _PathLocale
                0x0202bef4                __mlocale_changed
                0x0202bef8                __nlocale_changed
 .bss           0x0202befc        0x0 c:/devkitpro/devkitarm/bin/../lib/gcc/arm-none-eabi/4.7.1/../../../../arm-none-eabi/lib/thumb\libg.a(lib_a-makebuf.o)
 .bss           0x0202befc        0x0 c:/devkitpro/devkitarm/bin/../lib/gcc/arm-none-eabi/4.7.1/../../../../arm-none-eabi/lib/thumb\libg.a(lib_a-malloc.o)
 .bss           0x0202befc       0x34 c:/devkitpro/devkitarm/bin/../lib/gcc/arm-none-eabi/4.7.1/../../../../arm-none-eabi/lib/thumb\libg.a(lib_a-mallocr.o)
                0x0202befc                __malloc_top_pad
                0x0202bf00                __malloc_current_mallinfo
                0x0202bf28                __malloc_max_sbrked_mem
                0x0202bf2c                __malloc_max_total_mem
 .bss           0x0202bf30        0x0 c:/devkitpro/devkitarm/bin/../lib/gcc/arm-none-eabi/4.7.1/../../../../arm-none-eabi/lib/thumb\libg.a(lib_a-mbrtowc.o)
 .bss           0x0202bf30        0x0 c:/devkitpro/devkitarm/bin/../lib/gcc/arm-none-eabi/4.7.1/../../../../arm-none-eabi/lib/thumb\libg.a(lib_a-mbsrtowcs.o)
 .bss           0x0202bf30        0x0 c:/devkitpro/devkitarm/bin/../lib/gcc/arm-none-eabi/4.7.1/../../../../arm-none-eabi/lib/thumb\libg.a(lib_a-mbtowc_r.o)
 .bss           0x0202bf30        0x0 c:/devkitpro/devkitarm/bin/../lib/gcc/arm-none-eabi/4.7.1/../../../../arm-none-eabi/lib/thumb\libg.a(lib_a-memcmp.o)
 .bss           0x0202bf30        0x0 c:/devkitpro/devkitarm/bin/../lib/gcc/arm-none-eabi/4.7.1/../../../../arm-none-eabi/lib/thumb\libg.a(lib_a-memcpy-stub.o)
 .bss           0x0202bf30        0x0 c:/devkitpro/devkitarm/bin/../lib/gcc/arm-none-eabi/4.7.1/../../../../arm-none-eabi/lib/thumb\libg.a(lib_a-memmove.o)
 .bss           0x0202bf30        0x0 c:/devkitpro/devkitarm/bin/../lib/gcc/arm-none-eabi/4.7.1/../../../../arm-none-eabi/lib/thumb\libg.a(lib_a-memset.o)
 .bss           0x0202bf30        0x0 c:/devkitpro/devkitarm/bin/../lib/gcc/arm-none-eabi/4.7.1/../../../../arm-none-eabi/lib/thumb\libg.a(lib_a-mktime.o)
 .bss           0x0202bf30        0x0 c:/devkitpro/devkitarm/bin/../lib/gcc/arm-none-eabi/4.7.1/../../../../arm-none-eabi/lib/thumb\libg.a(lib_a-mktm_r.o)
 .bss           0x0202bf30        0x0 c:/devkitpro/devkitarm/bin/../lib/gcc/arm-none-eabi/4.7.1/../../../../arm-none-eabi/lib/thumb\libg.a(lib_a-mlock.o)
 .bss           0x0202bf30        0x0 c:/devkitpro/devkitarm/bin/../lib/gcc/arm-none-eabi/4.7.1/../../../../arm-none-eabi/lib/thumb\libg.a(lib_a-realloc.o)
 .bss           0x0202bf30        0x0 c:/devkitpro/devkitarm/bin/../lib/gcc/arm-none-eabi/4.7.1/../../../../arm-none-eabi/lib/thumb\libg.a(lib_a-reallocr.o)
 .bss           0x0202bf30        0x0 c:/devkitpro/devkitarm/bin/../lib/gcc/arm-none-eabi/4.7.1/../../../../arm-none-eabi/lib/thumb\libg.a(lib_a-refill.o)
 .bss           0x0202bf30        0x0 c:/devkitpro/devkitarm/bin/../lib/gcc/arm-none-eabi/4.7.1/../../../../arm-none-eabi/lib/thumb\libg.a(lib_a-rewind.o)
 .bss           0x0202bf30        0x0 c:/devkitpro/devkitarm/bin/../lib/gcc/arm-none-eabi/4.7.1/../../../../arm-none-eabi/lib/thumb\libg.a(lib_a-setvbuf.o)
 .bss           0x0202bf30        0x0 c:/devkitpro/devkitarm/bin/../lib/gcc/arm-none-eabi/4.7.1/../../../../arm-none-eabi/lib/thumb\libg.a(lib_a-siscanf.o)
 .bss           0x0202bf30        0x0 c:/devkitpro/devkitarm/bin/../lib/gcc/arm-none-eabi/4.7.1/../../../../arm-none-eabi/lib/thumb\libg.a(lib_a-sprintf.o)
 .bss           0x0202bf30        0x0 c:/devkitpro/devkitarm/bin/../lib/gcc/arm-none-eabi/4.7.1/../../../../arm-none-eabi/lib/thumb\libg.a(lib_a-stdio.o)
 .bss           0x0202bf30        0x0 c:/devkitpro/devkitarm/bin/../lib/gcc/arm-none-eabi/4.7.1/../../../../arm-none-eabi/lib/thumb\libg.a(lib_a-stpcpy.o)
 .bss           0x0202bf30        0x0 c:/devkitpro/devkitarm/bin/../lib/gcc/arm-none-eabi/4.7.1/../../../../arm-none-eabi/lib/thumb\libg.a(lib_a-strcasecmp.o)
 .bss           0x0202bf30        0x0 c:/devkitpro/devkitarm/bin/../lib/gcc/arm-none-eabi/4.7.1/../../../../arm-none-eabi/lib/thumb\libg.a(lib_a-strcat.o)
 .bss           0x0202bf30        0x0 c:/devkitpro/devkitarm/bin/../lib/gcc/arm-none-eabi/4.7.1/../../../../arm-none-eabi/lib/thumb\libg.a(lib_a-strchr.o)
 .bss           0x0202bf30        0x0 c:/devkitpro/devkitarm/bin/../lib/gcc/arm-none-eabi/4.7.1/../../../../arm-none-eabi/lib/thumb\libg.a(lib_a-strcmp.o)
 .bss           0x0202bf30        0x0 c:/devkitpro/devkitarm/bin/../lib/gcc/arm-none-eabi/4.7.1/../../../../arm-none-eabi/lib/thumb\libg.a(lib_a-strcpy.o)
 .bss           0x0202bf30        0x0 c:/devkitpro/devkitarm/bin/../lib/gcc/arm-none-eabi/4.7.1/../../../../arm-none-eabi/lib/thumb\libg.a(lib_a-strlcpy.o)
 .bss           0x0202bf30        0x0 c:/devkitpro/devkitarm/bin/../lib/gcc/arm-none-eabi/4.7.1/../../../../arm-none-eabi/lib/thumb\libg.a(lib_a-strlen.o)
 .bss           0x0202bf30        0x0 c:/devkitpro/devkitarm/bin/../lib/gcc/arm-none-eabi/4.7.1/../../../../arm-none-eabi/lib/thumb\libg.a(lib_a-strncasecmp.o)
 .bss           0x0202bf30        0x0 c:/devkitpro/devkitarm/bin/../lib/gcc/arm-none-eabi/4.7.1/../../../../arm-none-eabi/lib/thumb\libg.a(lib_a-strncmp.o)
 .bss           0x0202bf30        0x0 c:/devkitpro/devkitarm/bin/../lib/gcc/arm-none-eabi/4.7.1/../../../../arm-none-eabi/lib/thumb\libg.a(lib_a-strncpy.o)
 .bss           0x0202bf30        0x0 c:/devkitpro/devkitarm/bin/../lib/gcc/arm-none-eabi/4.7.1/../../../../arm-none-eabi/lib/thumb\libg.a(lib_a-strnlen.o)
 .bss           0x0202bf30        0x0 c:/devkitpro/devkitarm/bin/../lib/gcc/arm-none-eabi/4.7.1/../../../../arm-none-eabi/lib/thumb\libg.a(lib_a-strpbrk.o)
 .bss           0x0202bf30        0x0 c:/devkitpro/devkitarm/bin/../lib/gcc/arm-none-eabi/4.7.1/../../../../arm-none-eabi/lib/thumb\libg.a(lib_a-strrchr.o)
 .bss           0x0202bf30        0x0 c:/devkitpro/devkitarm/bin/../lib/gcc/arm-none-eabi/4.7.1/../../../../arm-none-eabi/lib/thumb\libg.a(lib_a-strtol.o)
 .bss           0x0202bf30        0x0 c:/devkitpro/devkitarm/bin/../lib/gcc/arm-none-eabi/4.7.1/../../../../arm-none-eabi/lib/thumb\libg.a(lib_a-svfiscanf.o)
 .bss           0x0202bf30        0x0 c:/devkitpro/devkitarm/bin/../lib/gcc/arm-none-eabi/4.7.1/../../../../arm-none-eabi/lib/thumb\libg.a(lib_a-svfprintf.o)
 .bss           0x0202bf30        0x0 c:/devkitpro/devkitarm/bin/../lib/gcc/arm-none-eabi/4.7.1/../../../../arm-none-eabi/lib/thumb\libg.a(lib_a-sysclose.o)
 .bss           0x0202bf30        0x0 c:/devkitpro/devkitarm/bin/../lib/gcc/arm-none-eabi/4.7.1/../../../../arm-none-eabi/lib/thumb\libg.a(lib_a-syslseek.o)
 .bss           0x0202bf30        0x0 c:/devkitpro/devkitarm/bin/../lib/gcc/arm-none-eabi/4.7.1/../../../../arm-none-eabi/lib/thumb\libg.a(lib_a-sysopen.o)
 .bss           0x0202bf30        0x0 c:/devkitpro/devkitarm/bin/../lib/gcc/arm-none-eabi/4.7.1/../../../../arm-none-eabi/lib/thumb\libg.a(lib_a-sysread.o)
 .bss           0x0202bf30        0x0 c:/devkitpro/devkitarm/bin/../lib/gcc/arm-none-eabi/4.7.1/../../../../arm-none-eabi/lib/thumb\libg.a(lib_a-time.o)
 .bss           0x0202bf30        0x0 c:/devkitpro/devkitarm/bin/../lib/gcc/arm-none-eabi/4.7.1/../../../../arm-none-eabi/lib/thumb\libg.a(lib_a-towlower.o)
 .bss           0x0202bf30        0x0 c:/devkitpro/devkitarm/bin/../lib/gcc/arm-none-eabi/4.7.1/../../../../arm-none-eabi/lib/thumb\libg.a(lib_a-towupper.o)
 .bss           0x0202bf30        0x0 c:/devkitpro/devkitarm/bin/../lib/gcc/arm-none-eabi/4.7.1/../../../../arm-none-eabi/lib/thumb\libg.a(lib_a-tzlock.o)
 .bss           0x0202bf30        0x8 c:/devkitpro/devkitarm/bin/../lib/gcc/arm-none-eabi/4.7.1/../../../../arm-none-eabi/lib/thumb\libg.a(lib_a-tzvars.o)
                0x0202bf30                _timezone
                0x0202bf34                _daylight
 .bss           0x0202bf38        0x0 c:/devkitpro/devkitarm/bin/../lib/gcc/arm-none-eabi/4.7.1/../../../../arm-none-eabi/lib/thumb\libg.a(lib_a-ungetc.o)
 .bss           0x0202bf38        0x0 c:/devkitpro/devkitarm/bin/../lib/gcc/arm-none-eabi/4.7.1/../../../../arm-none-eabi/lib/thumb\libg.a(lib_a-vfiprintf.o)
 .bss           0x0202bf38        0x0 c:/devkitpro/devkitarm/bin/../lib/gcc/arm-none-eabi/4.7.1/../../../../arm-none-eabi/lib/thumb\libg.a(lib_a-wcrtomb.o)
 .bss           0x0202bf38        0x0 c:/devkitpro/devkitarm/bin/../lib/gcc/arm-none-eabi/4.7.1/../../../../arm-none-eabi/lib/thumb\libg.a(lib_a-wcsrtombs.o)
 .bss           0x0202bf38        0x0 c:/devkitpro/devkitarm/bin/../lib/gcc/arm-none-eabi/4.7.1/../../../../arm-none-eabi/lib/thumb\libg.a(lib_a-wctob.o)
 .bss           0x0202bf38        0x0 c:/devkitpro/devkitarm/bin/../lib/gcc/arm-none-eabi/4.7.1/../../../../arm-none-eabi/lib/thumb\libg.a(lib_a-wctomb_r.o)
 .bss           0x0202bf38        0x0 c:/devkitpro/devkitarm/bin/../lib/gcc/arm-none-eabi/4.7.1/../../../../arm-none-eabi/lib/thumb\libg.a(lib_a-wsetup.o)
 .bss           0x0202bf38        0x0 c:/devkitpro/devkitarm/bin/../lib/gcc/arm-none-eabi/4.7.1/../../../../arm-none-eabi/lib/thumb\libg.a(lib_a-div.o)
 .bss           0x0202bf38        0x0 c:/devkitpro/devkitarm/bin/../lib/gcc/arm-none-eabi/4.7.1/../../../../arm-none-eabi/lib/thumb\libg.a(lib_a-dtoa.o)
 .bss           0x0202bf38        0x0 c:/devkitpro/devkitarm/bin/../lib/gcc/arm-none-eabi/4.7.1/../../../../arm-none-eabi/lib/thumb\libg.a(lib_a-flags.o)
 .bss           0x0202bf38        0x0 c:/devkitpro/devkitarm/bin/../lib/gcc/arm-none-eabi/4.7.1/../../../../arm-none-eabi/lib/thumb\libg.a(lib_a-fputwc.o)
 .bss           0x0202bf38        0x0 c:/devkitpro/devkitarm/bin/../lib/gcc/arm-none-eabi/4.7.1/../../../../arm-none-eabi/lib/thumb\libg.a(lib_a-fvwrite.o)
 .bss           0x0202bf38        0x0 c:/devkitpro/devkitarm/bin/../lib/gcc/arm-none-eabi/4.7.1/../../../../arm-none-eabi/lib/thumb\libg.a(lib_a-getenv_r.o)
 .bss           0x0202bf38        0x0 c:/devkitpro/devkitarm/bin/../lib/gcc/arm-none-eabi/4.7.1/../../../../arm-none-eabi/lib/thumb\libg.a(lib_a-gettzinfo.o)
 .bss           0x0202bf38        0x0 c:/devkitpro/devkitarm/bin/../lib/gcc/arm-none-eabi/4.7.1/../../../../arm-none-eabi/lib/thumb\libg.a(lib_a-iswspace.o)
 .bss           0x0202bf38        0x0 c:/devkitpro/devkitarm/bin/../lib/gcc/arm-none-eabi/4.7.1/../../../../arm-none-eabi/lib/thumb\libg.a(lib_a-jp2uc.o)
 .bss           0x0202bf38        0x0 c:/devkitpro/devkitarm/bin/../lib/gcc/arm-none-eabi/4.7.1/../../../../arm-none-eabi/lib/thumb\libg.a(lib_a-mbsnrtowcs.o)
 .bss           0x0202bf38        0x0 c:/devkitpro/devkitarm/bin/../lib/gcc/arm-none-eabi/4.7.1/../../../../arm-none-eabi/lib/thumb\libg.a(lib_a-memchr-stub.o)
 .bss           0x0202bf38        0x0 c:/devkitpro/devkitarm/bin/../lib/gcc/arm-none-eabi/4.7.1/../../../../arm-none-eabi/lib/thumb\libg.a(lib_a-mprec.o)
 .bss           0x0202bf38        0x0 c:/devkitpro/devkitarm/bin/../lib/gcc/arm-none-eabi/4.7.1/../../../../arm-none-eabi/lib/thumb\libg.a(lib_a-sccl.o)
 .bss           0x0202bf38        0x0 c:/devkitpro/devkitarm/bin/../lib/gcc/arm-none-eabi/4.7.1/../../../../arm-none-eabi/lib/thumb\libg.a(lib_a-s_fpclassify.o)
 .bss           0x0202bf38        0x0 c:/devkitpro/devkitarm/bin/../lib/gcc/arm-none-eabi/4.7.1/../../../../arm-none-eabi/lib/thumb\libg.a(lib_a-strtoll_r.o)
 .bss           0x0202bf38        0x0 c:/devkitpro/devkitarm/bin/../lib/gcc/arm-none-eabi/4.7.1/../../../../arm-none-eabi/lib/thumb\libg.a(lib_a-strtoull_r.o)
 .bss           0x0202bf38        0x0 c:/devkitpro/devkitarm/bin/../lib/gcc/arm-none-eabi/4.7.1/../../../../arm-none-eabi/lib/thumb\libg.a(lib_a-strtoul.o)
 .bss           0x0202bf38        0x0 c:/devkitpro/devkitarm/bin/../lib/gcc/arm-none-eabi/4.7.1/../../../../arm-none-eabi/lib/thumb\libg.a(lib_a-svfiprintf.o)
 .bss           0x0202bf38        0x0 c:/devkitpro/devkitarm/bin/../lib/gcc/arm-none-eabi/4.7.1/../../../../arm-none-eabi/lib/thumb\libg.a(lib_a-wbuf.o)
 .bss           0x0202bf38        0x0 c:/devkitpro/devkitarm/bin/../lib/gcc/arm-none-eabi/4.7.1/../../../../arm-none-eabi/lib/thumb\libg.a(lib_a-wcsnrtombs.o)
 .bss           0x0202bf38        0x4 c:/devkitpro/devkitarm/bin/../lib/gcc/arm-none-eabi/4.7.1/../../../../arm-none-eabi/lib/thumb\libg.a(lib_a-environ.o)
 .bss           0x0202bf3c        0x0 c:/devkitpro/devkitarm/bin/../lib/gcc/arm-none-eabi/4.7.1/../../../../arm-none-eabi/lib/thumb\libg.a(lib_a-envlock.o)
 .bss           0x0202bf3c        0x0 c:/devkitpro/devkitarm/bin/../lib/gcc/arm-none-eabi/4.7.1/../../../../arm-none-eabi/lib/thumb\libsysbase.a(iosupport.o)
 .bss           0x0202bf3c        0x0 c:/devkitpro/devkitarm/bin/../lib/gcc/arm-none-eabi/4.7.1/../../../../arm-none-eabi/lib/thumb\libsysbase.a(close.o)
 .bss           0x0202bf3c        0x0 c:/devkitpro/devkitarm/bin/../lib/gcc/arm-none-eabi/4.7.1/../../../../arm-none-eabi/lib/thumb\libsysbase.a(fstat.o)
 .bss           0x0202bf3c        0x0 c:/devkitpro/devkitarm/bin/../lib/gcc/arm-none-eabi/4.7.1/../../../../arm-none-eabi/lib/thumb\libsysbase.a(isatty.o)
 .bss           0x0202bf3c        0x0 c:/devkitpro/devkitarm/bin/../lib/gcc/arm-none-eabi/4.7.1/../../../../arm-none-eabi/lib/thumb\libsysbase.a(lseek.o)
 .bss           0x0202bf3c        0x0 c:/devkitpro/devkitarm/bin/../lib/gcc/arm-none-eabi/4.7.1/../../../../arm-none-eabi/lib/thumb\libsysbase.a(open.o)
 .bss           0x0202bf3c        0x0 c:/devkitpro/devkitarm/bin/../lib/gcc/arm-none-eabi/4.7.1/../../../../arm-none-eabi/lib/thumb\libsysbase.a(read.o)
 .bss           0x0202bf3c        0x4 c:/devkitpro/devkitarm/bin/../lib/gcc/arm-none-eabi/4.7.1/../../../../arm-none-eabi/lib/thumb\libsysbase.a(sbrk.o)
 .bss           0x0202bf40        0x0 c:/devkitpro/devkitarm/bin/../lib/gcc/arm-none-eabi/4.7.1/../../../../arm-none-eabi/lib/thumb\libsysbase.a(times.o)
 .bss           0x0202bf40        0x0 c:/devkitpro/devkitarm/bin/../lib/gcc/arm-none-eabi/4.7.1/../../../../arm-none-eabi/lib/thumb\libsysbase.a(write.o)
 .bss           0x0202bf40        0x8 c:/devkitpro/devkitarm/bin/../lib/gcc/arm-none-eabi/4.7.1/../../../../arm-none-eabi/lib/thumb\libsysbase.a(malloc_vars.o)
                0x0202bf40                fake_heap_start
                0x0202bf44                fake_heap_end
 .bss           0x0202bf48        0x0 c:/devkitpro/devkitarm/bin/../lib/gcc/arm-none-eabi/4.7.1/../../../../arm-none-eabi/lib/thumb\libsysbase.a(chdir.o)
 .bss           0x0202bf48        0x0 c:/devkitpro/devkitarm/bin/../lib/gcc/arm-none-eabi/4.7.1/../../../../arm-none-eabi/lib/thumb\libsysbase.a(build_argv.o)
 .bss           0x0202bf48        0x8 c:/devkitpro/devkitarm/bin/../lib/gcc/arm-none-eabi/4.7.1/../../../../arm-none-eabi/lib/thumb\libsysbase.a(syscall_support.o)
                0x0202bf48                __syscalls
 .bss           0x0202bf50     0x1000 c:/devkitpro/devkitarm/bin/../lib/gcc/arm-none-eabi/4.7.1/../../../../arm-none-eabi/lib/thumb\libsysbase.a(handle_manager.o)
 .bss           0x0202cf50        0x0 c:/devkitpro/devkitarm/bin/../lib/gcc/arm-none-eabi/4.7.1/thumb\libgcc.a(_arm_addsubdf3.o)
 .bss           0x0202cf50        0x0 c:/devkitpro/devkitarm/bin/../lib/gcc/arm-none-eabi/4.7.1/thumb\libgcc.a(_arm_muldivdf3.o)
 .bss           0x0202cf50        0x0 c:/devkitpro/devkitarm/bin/../lib/gcc/arm-none-eabi/4.7.1/thumb\libgcc.a(_arm_cmpdf2.o)
 .bss           0x0202cf50        0x0 c:/devkitpro/devkitarm/bin/../lib/gcc/arm-none-eabi/4.7.1/thumb\libgcc.a(_arm_fixdfsi.o)
 .bss           0x0202cf50        0x0 c:/devkitpro/devkitarm/bin/../lib/gcc/arm-none-eabi/4.7.1/thumb\libgcc.a(_aeabi_uldivmod.o)
 .bss           0x0202cf50        0x0 c:/devkitpro/devkitarm/bin/../lib/gcc/arm-none-eabi/4.7.1/thumb\libgcc.a(bpabi.o)
 .bss           0x0202cf50        0x0 c:/devkitpro/devkitarm/bin/../lib/gcc/arm-none-eabi/4.7.1/thumb\libgcc.a(_divdi3.o)
 .bss           0x0202cf50        0x0 c:/devkitpro/devkitarm/bin/../lib/gcc/arm-none-eabi/4.7.1/thumb\libgcc.a(_udivdi3.o)
 .bss           0x0202cf50        0x0 c:/devkitpro/devkitarm/bin/../lib/gcc/arm-none-eabi/4.7.1/thumb\libgcc.a(_clzsi2.o)
 .bss           0x0202cf50        0x0 c:/devkitpro/devkitarm/bin/../lib/gcc/arm-none-eabi/4.7.1/../../../../arm-none-eabi/lib/thumb\libg.a(lib_a-errno.o)
 .bss           0x0202cf50        0x0 c:/devkitpro/devkitarm/bin/../lib/gcc/arm-none-eabi/4.7.1/thumb/crtend.o
 .bss           0x0202cf50        0x0 c:/devkitpro/devkitarm/bin/../lib/gcc/arm-none-eabi/4.7.1/thumb/crtn.o
 *(COMMON)
 COMMON         0x0202cf50       0x20 c:/Users/Derrick/Desktop/nflib_20120804/nflib/examples/graphics/backbuffer/nflib/lib\libnflib.a(nf_basic.o)
                0x0202cf50                NF_ROOTFOLDER
 COMMON         0x0202cf70      0x258 c:/Users/Derrick/Desktop/nflib_20120804/nflib/examples/graphics/backbuffer/nflib/lib\libnflib.a(nf_bitmapbg.o)
                0x0202cf70                NF_8BITS_BACKBUFFER
                0x0202cf80                NF_16BITS_BACKBUFFER
                0x0202cf88                NF_BG8B
                0x0202d0c8                NF_BG16B
 COMMON         0x0202d1c8     0x5378 c:/Users/Derrick/Desktop/nflib_20120804/nflib/examples/graphics/backbuffer/nflib/lib\libnflib.a(nf_sprite256.o)
                0x0202d1c8                NF_SPR256GFX
                0x0202ddc8                NF_BUFFER_SPR256PAL
                0x0202dec8                NF_BUFFER_SPR256GFX
                0x0202e2c8                NF_SPRITEOAM
                0x020306c8                NF_SPR256VRAM
                0x02031ac8                NF_SPRVRAM
                0x02032300                NF_SPRPALSLOT
                0x02032340                NF_SPR256PAL
 COMMON         0x02032540     0x16c8 c:/Users/Derrick/Desktop/nflib_20120804/nflib/examples/graphics/backbuffer/nflib/lib\libnflib.a(nf_tiledbg.o)
                0x02032540                NF_BUFFER_BGTILES
                0x02032640                NF_TILEBLOCKS
                0x02032650                NF_BUFFER_BGMAP
                0x02032750                NF_BANKS_TILES
                0x02032754                NF_BANKS_MAPS
                0x02032758                NF_EXBGPAL
                0x02032d58                NF_TILEDBG_LAYERS
                0x02032de8                NF_MAPBLOCKS
                0x02032e08                NF_BUFFER_BGPAL
                0x02032f08                NF_TILEDBG
 COMMON         0x02033c08       0x5c c:/devkitPro/libnds/lib\libnds9.a(console.o)
                0x02033c08                currentCopy
 COMMON         0x02033c64      0x800 c:/devkitPro/libnds/lib\libnds9.a(sprite.o)
                0x02033c64                OamMemorySub
                0x02034064                OamMemory
 COMMON         0x02034464        0x1 c:/devkitPro/libnds/lib\libnds9.a(initSystem.o)
                0x02034464                __dsimode
 *fill*         0x02034465        0x3 00
 COMMON         0x02034468      0xa40 c:/devkitPro/libnds/lib\libnds9.a(fifosystem.o)
                0x02034468                fifo_datamsg_data
                0x020344a8                fifo_buffer
                0x02034ca8                fifo_value32_func
                0x02034ce8                fifo_address_func
                0x02034d28                fifo_value32_data
                0x02034d68                fifo_value32_queue
                0x02034da8                fifo_data_queue
                0x02034de8                fifo_address_data
                0x02034e28                fifo_datamsg_func
                0x02034e68                fifo_address_queue
 COMMON         0x02034ea8      0x148 c:/devkitPro/libnds/lib\libnds9.a(background.o)
                0x02034ea8                bgState
                0x02034fe8                bgIsTextLut
 COMMON         0x02034ff0        0x4 c:/devkitpro/devkitarm/bin/../lib/gcc/arm-none-eabi/4.7.1/../../../../arm-none-eabi/lib/thumb\libsysbase.a(times.o)
                0x02034ff0                punixTime
                0x02034ff4                . = ALIGN (0x4)
                0x02034ff4                __bss_end__ = ABSOLUTE (.)
                0x02034ff4                __end__ = ABSOLUTE (.)

.stab
 *(.stab)

.stabstr
 *(.stabstr)

.stab.excl
 *(.stab.excl)

.stab.exclstr
 *(.stab.exclstr)

.stab.index
 *(.stab.index)

.stab.indexstr
 *(.stab.indexstr)

.comment        0x00000000       0x88
 *(.comment)
 .comment       0x00000000       0x22 c:/devkitpro/devkitarm/bin/../lib/gcc/arm-none-eabi/4.7.1/thumb/crtbegin.o
                                 0x23 (size before relaxing)
 .comment       0x00000000       0x23 main.o
 .comment       0x00000000       0x23 c:/Users/Derrick/Desktop/nflib_20120804/nflib/examples/graphics/backbuffer/nflib/lib\libnflib.a(nf_2d.o)
 .comment       0x00000000       0x23 c:/Users/Derrick/Desktop/nflib_20120804/nflib/examples/graphics/backbuffer/nflib/lib\libnflib.a(nf_basic.o)
 .comment       0x00000000       0x23 c:/Users/Derrick/Desktop/nflib_20120804/nflib/examples/graphics/backbuffer/nflib/lib\libnflib.a(nf_bitmapbg.o)
 .comment       0x00000000       0x23 c:/Users/Derrick/Desktop/nflib_20120804/nflib/examples/graphics/backbuffer/nflib/lib\libnflib.a(nf_sprite256.o)
 .comment       0x00000000       0x23 c:/Users/Derrick/Desktop/nflib_20120804/nflib/examples/graphics/backbuffer/nflib/lib\libnflib.a(nf_tiledbg.o)
 .comment       0x00000022       0x22 c:/devkitPro/libnds/lib\libfilesystem.a(nitrofs.o)
                                 0x23 (size before relaxing)
 .comment       0x00000044       0x22 c:/devkitPro/libnds/lib\libfat.a(libfat.o)
                                 0x23 (size before relaxing)
 .comment       0x00000000       0x23 c:/devkitPro/libnds/lib\libfat.a(partition.o)
 .comment       0x00000000       0x23 c:/devkitPro/libnds/lib\libfat.a(cache.o)
 .comment       0x00000000       0x23 c:/devkitPro/libnds/lib\libfat.a(directory.o)
 .comment       0x00000000       0x23 c:/devkitPro/libnds/lib\libfat.a(disc.o)
 .comment       0x00000000       0x23 c:/devkitPro/libnds/lib\libfat.a(fatdir.o)
 .comment       0x00000000       0x23 c:/devkitPro/libnds/lib\libfat.a(fatfile.o)
 .comment       0x00000000       0x23 c:/devkitPro/libnds/lib\libfat.a(file_allocation_table.o)
 .comment       0x00000000       0x23 c:/devkitPro/libnds/lib\libfat.a(filetime.o)
 .comment       0x00000000       0x23 c:/devkitPro/libnds/lib\libfat.a(lock.o)
 .comment       0x00000066       0x22 c:/devkitPro/libnds/lib\libnds9.a(console.o)
                                 0x23 (size before relaxing)
 .comment       0x00000000       0x23 c:/devkitPro/libnds/lib\libnds9.a(sprite.o)
 .comment       0x00000000       0x23 c:/devkitPro/libnds/lib\libnds9.a(sprite_alloc.o)
 .comment       0x00000000       0x23 c:/devkitPro/libnds/lib\libnds9.a(trig.o)
 .comment       0x00000000       0x23 c:/devkitPro/libnds/lib\libnds9.a(video.o)
 .comment       0x00000000       0x23 c:/devkitPro/libnds/lib\libnds9.a(dldi.o)
 .comment       0x00000000       0x23 c:/devkitPro/libnds/lib\libnds9.a(dsi_sd.o)
 .comment       0x00000000       0x23 c:/devkitPro/libnds/lib\libnds9.a(initSystem.o)
 .comment       0x00000000       0x23 c:/devkitPro/libnds/lib\libnds9.a(card.o)
 .comment       0x00000000       0x23 c:/devkitPro/libnds/lib\libnds9.a(fifosystem.o)
 .comment       0x00000000       0x23 c:/devkitPro/libnds/lib\libnds9.a(interrupts.o)
 .comment       0x00000000       0x23 c:/devkitPro/libnds/lib\libnds9.a(libnds_exit.arm.o)
 .comment       0x00000000       0x23 c:/devkitPro/libnds/lib\libnds9.a(background.o)
 .comment       0x00000000       0x23 c:/devkitPro/libnds/lib\libnds9.a(system.o)
 .comment       0x00000000       0x23 c:/devkitpro/devkitarm/bin/../lib/gcc/arm-none-eabi/4.7.1/thumb\libgcc.a(_muldi3.o)
 .comment       0x00000000       0x23 c:/devkitpro/devkitarm/bin/../lib/gcc/arm-none-eabi/4.7.1/../../../../arm-none-eabi/lib/thumb\libg.a(lib_a-bsearch.o)
 .comment       0x00000000       0x23 c:/devkitpro/devkitarm/bin/../lib/gcc/arm-none-eabi/4.7.1/../../../../arm-none-eabi/lib/thumb\libg.a(lib_a-calloc.o)
 .comment       0x00000000       0x23 c:/devkitpro/devkitarm/bin/../lib/gcc/arm-none-eabi/4.7.1/../../../../arm-none-eabi/lib/thumb\libg.a(lib_a-callocr.o)
 .comment       0x00000000       0x23 c:/devkitpro/devkitarm/bin/../lib/gcc/arm-none-eabi/4.7.1/../../../../arm-none-eabi/lib/thumb\libg.a(lib_a-ctype_.o)
 .comment       0x00000000       0x23 c:/devkitpro/devkitarm/bin/../lib/gcc/arm-none-eabi/4.7.1/../../../../arm-none-eabi/lib/thumb\libg.a(lib_a-fclose.o)
 .comment       0x00000000       0x23 c:/devkitpro/devkitarm/bin/../lib/gcc/arm-none-eabi/4.7.1/../../../../arm-none-eabi/lib/thumb\libg.a(lib_a-fflush.o)
 .comment       0x00000000       0x23 c:/devkitpro/devkitarm/bin/../lib/gcc/arm-none-eabi/4.7.1/../../../../arm-none-eabi/lib/thumb\libg.a(lib_a-findfp.o)
 .comment       0x00000000       0x23 c:/devkitpro/devkitarm/bin/../lib/gcc/arm-none-eabi/4.7.1/../../../../arm-none-eabi/lib/thumb\libg.a(lib_a-fopen.o)
 .comment       0x00000000       0x23 c:/devkitpro/devkitarm/bin/../lib/gcc/arm-none-eabi/4.7.1/../../../../arm-none-eabi/lib/thumb\libg.a(lib_a-fread.o)
 .comment       0x00000000       0x23 c:/devkitpro/devkitarm/bin/../lib/gcc/arm-none-eabi/4.7.1/../../../../arm-none-eabi/lib/thumb\libg.a(lib_a-freer.o)
 .comment       0x00000000       0x23 c:/devkitpro/devkitarm/bin/../lib/gcc/arm-none-eabi/4.7.1/../../../../arm-none-eabi/lib/thumb\libg.a(lib_a-fseek.o)
 .comment       0x00000000       0x23 c:/devkitpro/devkitarm/bin/../lib/gcc/arm-none-eabi/4.7.1/../../../../arm-none-eabi/lib/thumb\libg.a(lib_a-ftell.o)
 .comment       0x00000000       0x23 c:/devkitpro/devkitarm/bin/../lib/gcc/arm-none-eabi/4.7.1/../../../../arm-none-eabi/lib/thumb\libg.a(lib_a-fwalk.o)
 .comment       0x00000000       0x23 c:/devkitpro/devkitarm/bin/../lib/gcc/arm-none-eabi/4.7.1/../../../../arm-none-eabi/lib/thumb\libg.a(lib_a-impure.o)
 .comment       0x00000000       0x23 c:/devkitpro/devkitarm/bin/../lib/gcc/arm-none-eabi/4.7.1/../../../../arm-none-eabi/lib/thumb\libg.a(lib_a-init.o)
 .comment       0x00000000       0x23 c:/devkitpro/devkitarm/bin/../lib/gcc/arm-none-eabi/4.7.1/../../../../arm-none-eabi/lib/thumb\libg.a(lib_a-iprintf.o)
 .comment       0x00000000       0x23 c:/devkitpro/devkitarm/bin/../lib/gcc/arm-none-eabi/4.7.1/../../../../arm-none-eabi/lib/thumb\libg.a(lib_a-lcltime_r.o)
 .comment       0x00000000       0x23 c:/devkitpro/devkitarm/bin/../lib/gcc/arm-none-eabi/4.7.1/../../../../arm-none-eabi/lib/thumb\libg.a(lib_a-locale.o)
 .comment       0x00000000       0x23 c:/devkitpro/devkitarm/bin/../lib/gcc/arm-none-eabi/4.7.1/../../../../arm-none-eabi/lib/thumb\libg.a(lib_a-makebuf.o)
 .comment       0x00000000       0x23 c:/devkitpro/devkitarm/bin/../lib/gcc/arm-none-eabi/4.7.1/../../../../arm-none-eabi/lib/thumb\libg.a(lib_a-malloc.o)
 .comment       0x00000000       0x23 c:/devkitpro/devkitarm/bin/../lib/gcc/arm-none-eabi/4.7.1/../../../../arm-none-eabi/lib/thumb\libg.a(lib_a-mallocr.o)
 .comment       0x00000000       0x23 c:/devkitpro/devkitarm/bin/../lib/gcc/arm-none-eabi/4.7.1/../../../../arm-none-eabi/lib/thumb\libg.a(lib_a-mbrtowc.o)
 .comment       0x00000000       0x23 c:/devkitpro/devkitarm/bin/../lib/gcc/arm-none-eabi/4.7.1/../../../../arm-none-eabi/lib/thumb\libg.a(lib_a-mbsrtowcs.o)
 .comment       0x00000000       0x23 c:/devkitpro/devkitarm/bin/../lib/gcc/arm-none-eabi/4.7.1/../../../../arm-none-eabi/lib/thumb\libg.a(lib_a-mbtowc_r.o)
 .comment       0x00000000       0x23 c:/devkitpro/devkitarm/bin/../lib/gcc/arm-none-eabi/4.7.1/../../../../arm-none-eabi/lib/thumb\libg.a(lib_a-memcmp.o)
 .comment       0x00000000       0x23 c:/devkitpro/devkitarm/bin/../lib/gcc/arm-none-eabi/4.7.1/../../../../arm-none-eabi/lib/thumb\libg.a(lib_a-memcpy-stub.o)
 .comment       0x00000000       0x23 c:/devkitpro/devkitarm/bin/../lib/gcc/arm-none-eabi/4.7.1/../../../../arm-none-eabi/lib/thumb\libg.a(lib_a-memmove.o)
 .comment       0x00000000       0x23 c:/devkitpro/devkitarm/bin/../lib/gcc/arm-none-eabi/4.7.1/../../../../arm-none-eabi/lib/thumb\libg.a(lib_a-memset.o)
 .comment       0x00000000       0x23 c:/devkitpro/devkitarm/bin/../lib/gcc/arm-none-eabi/4.7.1/../../../../arm-none-eabi/lib/thumb\libg.a(lib_a-mktime.o)
 .comment       0x00000000       0x23 c:/devkitpro/devkitarm/bin/../lib/gcc/arm-none-eabi/4.7.1/../../../../arm-none-eabi/lib/thumb\libg.a(lib_a-mktm_r.o)
 .comment       0x00000000       0x23 c:/devkitpro/devkitarm/bin/../lib/gcc/arm-none-eabi/4.7.1/../../../../arm-none-eabi/lib/thumb\libg.a(lib_a-mlock.o)
 .comment       0x00000000       0x23 c:/devkitpro/devkitarm/bin/../lib/gcc/arm-none-eabi/4.7.1/../../../../arm-none-eabi/lib/thumb\libg.a(lib_a-realloc.o)
 .comment       0x00000000       0x23 c:/devkitpro/devkitarm/bin/../lib/gcc/arm-none-eabi/4.7.1/../../../../arm-none-eabi/lib/thumb\libg.a(lib_a-reallocr.o)
 .comment       0x00000000       0x23 c:/devkitpro/devkitarm/bin/../lib/gcc/arm-none-eabi/4.7.1/../../../../arm-none-eabi/lib/thumb\libg.a(lib_a-refill.o)
 .comment       0x00000000       0x23 c:/devkitpro/devkitarm/bin/../lib/gcc/arm-none-eabi/4.7.1/../../../../arm-none-eabi/lib/thumb\libg.a(lib_a-rewind.o)
 .comment       0x00000000       0x23 c:/devkitpro/devkitarm/bin/../lib/gcc/arm-none-eabi/4.7.1/../../../../arm-none-eabi/lib/thumb\libg.a(lib_a-setvbuf.o)
 .comment       0x00000000       0x23 c:/devkitpro/devkitarm/bin/../lib/gcc/arm-none-eabi/4.7.1/../../../../arm-none-eabi/lib/thumb\libg.a(lib_a-siscanf.o)
 .comment       0x00000000       0x23 c:/devkitpro/devkitarm/bin/../lib/gcc/arm-none-eabi/4.7.1/../../../../arm-none-eabi/lib/thumb\libg.a(lib_a-sprintf.o)
 .comment       0x00000000       0x23 c:/devkitpro/devkitarm/bin/../lib/gcc/arm-none-eabi/4.7.1/../../../../arm-none-eabi/lib/thumb\libg.a(lib_a-stdio.o)
 .comment       0x00000000       0x23 c:/devkitpro/devkitarm/bin/../lib/gcc/arm-none-eabi/4.7.1/../../../../arm-none-eabi/lib/thumb\libg.a(lib_a-stpcpy.o)
 .comment       0x00000000       0x23 c:/devkitpro/devkitarm/bin/../lib/gcc/arm-none-eabi/4.7.1/../../../../arm-none-eabi/lib/thumb\libg.a(lib_a-strcasecmp.o)
 .comment       0x00000000       0x23 c:/devkitpro/devkitarm/bin/../lib/gcc/arm-none-eabi/4.7.1/../../../../arm-none-eabi/lib/thumb\libg.a(lib_a-strcat.o)
 .comment       0x00000000       0x23 c:/devkitpro/devkitarm/bin/../lib/gcc/arm-none-eabi/4.7.1/../../../../arm-none-eabi/lib/thumb\libg.a(lib_a-strchr.o)
 .comment       0x00000000       0x23 c:/devkitpro/devkitarm/bin/../lib/gcc/arm-none-eabi/4.7.1/../../../../arm-none-eabi/lib/thumb\libg.a(lib_a-strcmp.o)
 .comment       0x00000000       0x23 c:/devkitpro/devkitarm/bin/../lib/gcc/arm-none-eabi/4.7.1/../../../../arm-none-eabi/lib/thumb\libg.a(lib_a-strcpy.o)
 .comment       0x00000000       0x23 c:/devkitpro/devkitarm/bin/../lib/gcc/arm-none-eabi/4.7.1/../../../../arm-none-eabi/lib/thumb\libg.a(lib_a-strlcpy.o)
 .comment       0x00000000       0x23 c:/devkitpro/devkitarm/bin/../lib/gcc/arm-none-eabi/4.7.1/../../../../arm-none-eabi/lib/thumb\libg.a(lib_a-strlen.o)
 .comment       0x00000000       0x23 c:/devkitpro/devkitarm/bin/../lib/gcc/arm-none-eabi/4.7.1/../../../../arm-none-eabi/lib/thumb\libg.a(lib_a-strncasecmp.o)
 .comment       0x00000000       0x23 c:/devkitpro/devkitarm/bin/../lib/gcc/arm-none-eabi/4.7.1/../../../../arm-none-eabi/lib/thumb\libg.a(lib_a-strncmp.o)
 .comment       0x00000000       0x23 c:/devkitpro/devkitarm/bin/../lib/gcc/arm-none-eabi/4.7.1/../../../../arm-none-eabi/lib/thumb\libg.a(lib_a-strncpy.o)
 .comment       0x00000000       0x23 c:/devkitpro/devkitarm/bin/../lib/gcc/arm-none-eabi/4.7.1/../../../../arm-none-eabi/lib/thumb\libg.a(lib_a-strnlen.o)
 .comment       0x00000000       0x23 c:/devkitpro/devkitarm/bin/../lib/gcc/arm-none-eabi/4.7.1/../../../../arm-none-eabi/lib/thumb\libg.a(lib_a-strpbrk.o)
 .comment       0x00000000       0x23 c:/devkitpro/devkitarm/bin/../lib/gcc/arm-none-eabi/4.7.1/../../../../arm-none-eabi/lib/thumb\libg.a(lib_a-strrchr.o)
 .comment       0x00000000       0x23 c:/devkitpro/devkitarm/bin/../lib/gcc/arm-none-eabi/4.7.1/../../../../arm-none-eabi/lib/thumb\libg.a(lib_a-strtol.o)
 .comment       0x00000000       0x23 c:/devkitpro/devkitarm/bin/../lib/gcc/arm-none-eabi/4.7.1/../../../../arm-none-eabi/lib/thumb\libg.a(lib_a-svfiscanf.o)
 .comment       0x00000000       0x23 c:/devkitpro/devkitarm/bin/../lib/gcc/arm-none-eabi/4.7.1/../../../../arm-none-eabi/lib/thumb\libg.a(lib_a-svfprintf.o)
 .comment       0x00000000       0x23 c:/devkitpro/devkitarm/bin/../lib/gcc/arm-none-eabi/4.7.1/../../../../arm-none-eabi/lib/thumb\libg.a(lib_a-sysclose.o)
 .comment       0x00000000       0x23 c:/devkitpro/devkitarm/bin/../lib/gcc/arm-none-eabi/4.7.1/../../../../arm-none-eabi/lib/thumb\libg.a(lib_a-syslseek.o)
 .comment       0x00000000       0x23 c:/devkitpro/devkitarm/bin/../lib/gcc/arm-none-eabi/4.7.1/../../../../arm-none-eabi/lib/thumb\libg.a(lib_a-sysopen.o)
 .comment       0x00000000       0x23 c:/devkitpro/devkitarm/bin/../lib/gcc/arm-none-eabi/4.7.1/../../../../arm-none-eabi/lib/thumb\libg.a(lib_a-sysread.o)
 .comment       0x00000000       0x23 c:/devkitpro/devkitarm/bin/../lib/gcc/arm-none-eabi/4.7.1/../../../../arm-none-eabi/lib/thumb\libg.a(lib_a-time.o)
 .comment       0x00000000       0x23 c:/devkitpro/devkitarm/bin/../lib/gcc/arm-none-eabi/4.7.1/../../../../arm-none-eabi/lib/thumb\libg.a(lib_a-towlower.o)
 .comment       0x00000000       0x23 c:/devkitpro/devkitarm/bin/../lib/gcc/arm-none-eabi/4.7.1/../../../../arm-none-eabi/lib/thumb\libg.a(lib_a-towupper.o)
 .comment       0x00000000       0x23 c:/devkitpro/devkitarm/bin/../lib/gcc/arm-none-eabi/4.7.1/../../../../arm-none-eabi/lib/thumb\libg.a(lib_a-tzlock.o)
 .comment       0x00000000       0x23 c:/devkitpro/devkitarm/bin/../lib/gcc/arm-none-eabi/4.7.1/../../../../arm-none-eabi/lib/thumb\libg.a(lib_a-tzvars.o)
 .comment       0x00000000       0x23 c:/devkitpro/devkitarm/bin/../lib/gcc/arm-none-eabi/4.7.1/../../../../arm-none-eabi/lib/thumb\libg.a(lib_a-ungetc.o)
 .comment       0x00000000       0x23 c:/devkitpro/devkitarm/bin/../lib/gcc/arm-none-eabi/4.7.1/../../../../arm-none-eabi/lib/thumb\libg.a(lib_a-vfiprintf.o)
 .comment       0x00000000       0x23 c:/devkitpro/devkitarm/bin/../lib/gcc/arm-none-eabi/4.7.1/../../../../arm-none-eabi/lib/thumb\libg.a(lib_a-wcrtomb.o)
 .comment       0x00000000       0x23 c:/devkitpro/devkitarm/bin/../lib/gcc/arm-none-eabi/4.7.1/../../../../arm-none-eabi/lib/thumb\libg.a(lib_a-wcsrtombs.o)
 .comment       0x00000000       0x23 c:/devkitpro/devkitarm/bin/../lib/gcc/arm-none-eabi/4.7.1/../../../../arm-none-eabi/lib/thumb\libg.a(lib_a-wctob.o)
 .comment       0x00000000       0x23 c:/devkitpro/devkitarm/bin/../lib/gcc/arm-none-eabi/4.7.1/../../../../arm-none-eabi/lib/thumb\libg.a(lib_a-wctomb_r.o)
 .comment       0x00000000       0x23 c:/devkitpro/devkitarm/bin/../lib/gcc/arm-none-eabi/4.7.1/../../../../arm-none-eabi/lib/thumb\libg.a(lib_a-wsetup.o)
 .comment       0x00000000       0x23 c:/devkitpro/devkitarm/bin/../lib/gcc/arm-none-eabi/4.7.1/../../../../arm-none-eabi/lib/thumb\libg.a(lib_a-div.o)
 .comment       0x00000000       0x23 c:/devkitpro/devkitarm/bin/../lib/gcc/arm-none-eabi/4.7.1/../../../../arm-none-eabi/lib/thumb\libg.a(lib_a-dtoa.o)
 .comment       0x00000000       0x23 c:/devkitpro/devkitarm/bin/../lib/gcc/arm-none-eabi/4.7.1/../../../../arm-none-eabi/lib/thumb\libg.a(lib_a-flags.o)
 .comment       0x00000000       0x23 c:/devkitpro/devkitarm/bin/../lib/gcc/arm-none-eabi/4.7.1/../../../../arm-none-eabi/lib/thumb\libg.a(lib_a-fputwc.o)
 .comment       0x00000000       0x23 c:/devkitpro/devkitarm/bin/../lib/gcc/arm-none-eabi/4.7.1/../../../../arm-none-eabi/lib/thumb\libg.a(lib_a-fvwrite.o)
 .comment       0x00000000       0x23 c:/devkitpro/devkitarm/bin/../lib/gcc/arm-none-eabi/4.7.1/../../../../arm-none-eabi/lib/thumb\libg.a(lib_a-getenv_r.o)
 .comment       0x00000000       0x23 c:/devkitpro/devkitarm/bin/../lib/gcc/arm-none-eabi/4.7.1/../../../../arm-none-eabi/lib/thumb\libg.a(lib_a-gettzinfo.o)
 .comment       0x00000000       0x23 c:/devkitpro/devkitarm/bin/../lib/gcc/arm-none-eabi/4.7.1/../../../../arm-none-eabi/lib/thumb\libg.a(lib_a-iswspace.o)
 .comment       0x00000000       0x23 c:/devkitpro/devkitarm/bin/../lib/gcc/arm-none-eabi/4.7.1/../../../../arm-none-eabi/lib/thumb\libg.a(lib_a-jp2uc.o)
 .comment       0x00000000       0x23 c:/devkitpro/devkitarm/bin/../lib/gcc/arm-none-eabi/4.7.1/../../../../arm-none-eabi/lib/thumb\libg.a(lib_a-mbsnrtowcs.o)
 .comment       0x00000000       0x23 c:/devkitpro/devkitarm/bin/../lib/gcc/arm-none-eabi/4.7.1/../../../../arm-none-eabi/lib/thumb\libg.a(lib_a-memchr-stub.o)
 .comment       0x00000000       0x23 c:/devkitpro/devkitarm/bin/../lib/gcc/arm-none-eabi/4.7.1/../../../../arm-none-eabi/lib/thumb\libg.a(lib_a-mprec.o)
 .comment       0x00000000       0x23 c:/devkitpro/devkitarm/bin/../lib/gcc/arm-none-eabi/4.7.1/../../../../arm-none-eabi/lib/thumb\libg.a(lib_a-sccl.o)
 .comment       0x00000000       0x23 c:/devkitpro/devkitarm/bin/../lib/gcc/arm-none-eabi/4.7.1/../../../../arm-none-eabi/lib/thumb\libg.a(lib_a-s_fpclassify.o)
 .comment       0x00000000       0x23 c:/devkitpro/devkitarm/bin/../lib/gcc/arm-none-eabi/4.7.1/../../../../arm-none-eabi/lib/thumb\libg.a(lib_a-strtoll_r.o)
 .comment       0x00000000       0x23 c:/devkitpro/devkitarm/bin/../lib/gcc/arm-none-eabi/4.7.1/../../../../arm-none-eabi/lib/thumb\libg.a(lib_a-strtoull_r.o)
 .comment       0x00000000       0x23 c:/devkitpro/devkitarm/bin/../lib/gcc/arm-none-eabi/4.7.1/../../../../arm-none-eabi/lib/thumb\libg.a(lib_a-strtoul.o)
 .comment       0x00000000       0x23 c:/devkitpro/devkitarm/bin/../lib/gcc/arm-none-eabi/4.7.1/../../../../arm-none-eabi/lib/thumb\libg.a(lib_a-svfiprintf.o)
 .comment       0x00000000       0x23 c:/devkitpro/devkitarm/bin/../lib/gcc/arm-none-eabi/4.7.1/../../../../arm-none-eabi/lib/thumb\libg.a(lib_a-wbuf.o)
 .comment       0x00000000       0x23 c:/devkitpro/devkitarm/bin/../lib/gcc/arm-none-eabi/4.7.1/../../../../arm-none-eabi/lib/thumb\libg.a(lib_a-wcsnrtombs.o)
 .comment       0x00000000       0x23 c:/devkitpro/devkitarm/bin/../lib/gcc/arm-none-eabi/4.7.1/../../../../arm-none-eabi/lib/thumb\libg.a(lib_a-environ.o)
 .comment       0x00000000       0x23 c:/devkitpro/devkitarm/bin/../lib/gcc/arm-none-eabi/4.7.1/../../../../arm-none-eabi/lib/thumb\libg.a(lib_a-envlock.o)
 .comment       0x00000000       0x23 c:/devkitpro/devkitarm/bin/../lib/gcc/arm-none-eabi/4.7.1/../../../../arm-none-eabi/lib/thumb\libsysbase.a(iosupport.o)
 .comment       0x00000000       0x23 c:/devkitpro/devkitarm/bin/../lib/gcc/arm-none-eabi/4.7.1/../../../../arm-none-eabi/lib/thumb\libsysbase.a(close.o)
 .comment       0x00000000       0x23 c:/devkitpro/devkitarm/bin/../lib/gcc/arm-none-eabi/4.7.1/../../../../arm-none-eabi/lib/thumb\libsysbase.a(fstat.o)
 .comment       0x00000000       0x23 c:/devkitpro/devkitarm/bin/../lib/gcc/arm-none-eabi/4.7.1/../../../../arm-none-eabi/lib/thumb\libsysbase.a(isatty.o)
 .comment       0x00000000       0x23 c:/devkitpro/devkitarm/bin/../lib/gcc/arm-none-eabi/4.7.1/../../../../arm-none-eabi/lib/thumb\libsysbase.a(lseek.o)
 .comment       0x00000000       0x23 c:/devkitpro/devkitarm/bin/../lib/gcc/arm-none-eabi/4.7.1/../../../../arm-none-eabi/lib/thumb\libsysbase.a(open.o)
 .comment       0x00000000       0x23 c:/devkitpro/devkitarm/bin/../lib/gcc/arm-none-eabi/4.7.1/../../../../arm-none-eabi/lib/thumb\libsysbase.a(read.o)
 .comment       0x00000000       0x23 c:/devkitpro/devkitarm/bin/../lib/gcc/arm-none-eabi/4.7.1/../../../../arm-none-eabi/lib/thumb\libsysbase.a(sbrk.o)
 .comment       0x00000000       0x23 c:/devkitpro/devkitarm/bin/../lib/gcc/arm-none-eabi/4.7.1/../../../../arm-none-eabi/lib/thumb\libsysbase.a(times.o)
 .comment       0x00000000       0x23 c:/devkitpro/devkitarm/bin/../lib/gcc/arm-none-eabi/4.7.1/../../../../arm-none-eabi/lib/thumb\libsysbase.a(write.o)
 .comment       0x00000000       0x23 c:/devkitpro/devkitarm/bin/../lib/gcc/arm-none-eabi/4.7.1/../../../../arm-none-eabi/lib/thumb\libsysbase.a(malloc_vars.o)
 .comment       0x00000000       0x23 c:/devkitpro/devkitarm/bin/../lib/gcc/arm-none-eabi/4.7.1/../../../../arm-none-eabi/lib/thumb\libsysbase.a(chdir.o)
 .comment       0x00000000       0x23 c:/devkitpro/devkitarm/bin/../lib/gcc/arm-none-eabi/4.7.1/../../../../arm-none-eabi/lib/thumb\libsysbase.a(build_argv.o)
 .comment       0x00000000       0x23 c:/devkitpro/devkitarm/bin/../lib/gcc/arm-none-eabi/4.7.1/../../../../arm-none-eabi/lib/thumb\libsysbase.a(syscall_support.o)
 .comment       0x00000000       0x23 c:/devkitpro/devkitarm/bin/../lib/gcc/arm-none-eabi/4.7.1/../../../../arm-none-eabi/lib/thumb\libsysbase.a(handle_manager.o)
 .comment       0x00000000       0x23 c:/devkitpro/devkitarm/bin/../lib/gcc/arm-none-eabi/4.7.1/thumb\libgcc.a(bpabi.o)
 .comment       0x00000000       0x23 c:/devkitpro/devkitarm/bin/../lib/gcc/arm-none-eabi/4.7.1/thumb\libgcc.a(_divdi3.o)
 .comment       0x00000000       0x23 c:/devkitpro/devkitarm/bin/../lib/gcc/arm-none-eabi/4.7.1/thumb\libgcc.a(_udivdi3.o)
 .comment       0x00000000       0x23 c:/devkitpro/devkitarm/bin/../lib/gcc/arm-none-eabi/4.7.1/../../../../arm-none-eabi/lib/thumb\libg.a(lib_a-errno.o)
 .comment       0x00000000       0x23 c:/devkitpro/devkitarm/bin/../lib/gcc/arm-none-eabi/4.7.1/thumb/crtend.o

.ARM.attributes
                0x00000000       0x2d
 .ARM.attributes
                0x00000000       0x23 c:/devkitpro/devkitarm/bin/../lib/gcc/arm-none-eabi/4.7.1/../../../../arm-none-eabi/lib/thumb/ds_arm9_crt0.o
 .ARM.attributes
                0x00000023       0x18 c:/devkitpro/devkitarm/bin/../lib/gcc/arm-none-eabi/4.7.1/thumb/crti.o
 .ARM.attributes
                0x0000003b       0x32 c:/devkitpro/devkitarm/bin/../lib/gcc/arm-none-eabi/4.7.1/thumb/crtbegin.o
 .ARM.attributes
                0x0000006d       0x29 main.o
 .ARM.attributes
                0x00000096       0x29 c:/Users/Derrick/Desktop/nflib_20120804/nflib/examples/graphics/backbuffer/nflib/lib\libnflib.a(nf_2d.o)
 .ARM.attributes
                0x000000bf       0x29 c:/Users/Derrick/Desktop/nflib_20120804/nflib/examples/graphics/backbuffer/nflib/lib\libnflib.a(nf_basic.o)
 .ARM.attributes
                0x000000e8       0x29 c:/Users/Derrick/Desktop/nflib_20120804/nflib/examples/graphics/backbuffer/nflib/lib\libnflib.a(nf_bitmapbg.o)
 .ARM.attributes
                0x00000111       0x29 c:/Users/Derrick/Desktop/nflib_20120804/nflib/examples/graphics/backbuffer/nflib/lib\libnflib.a(nf_sprite256.o)
 .ARM.attributes
                0x0000013a       0x29 c:/Users/Derrick/Desktop/nflib_20120804/nflib/examples/graphics/backbuffer/nflib/lib\libnflib.a(nf_tiledbg.o)
 .ARM.attributes
                0x00000163       0x27 c:/devkitPro/libnds/lib\libfilesystem.a(nitrofs.o)
 .ARM.attributes
                0x0000018a       0x29 c:/devkitPro/libnds/lib\libfat.a(libfat.o)
 .ARM.attributes
                0x000001b3       0x29 c:/devkitPro/libnds/lib\libfat.a(partition.o)
 .ARM.attributes
                0x000001dc       0x29 c:/devkitPro/libnds/lib\libfat.a(cache.o)
 .ARM.attributes
                0x00000205       0x29 c:/devkitPro/libnds/lib\libfat.a(directory.o)
 .ARM.attributes
                0x0000022e       0x29 c:/devkitPro/libnds/lib\libfat.a(disc.o)
 .ARM.attributes
                0x00000257       0x29 c:/devkitPro/libnds/lib\libfat.a(fatdir.o)
 .ARM.attributes
                0x00000280       0x29 c:/devkitPro/libnds/lib\libfat.a(fatfile.o)
 .ARM.attributes
                0x000002a9       0x29 c:/devkitPro/libnds/lib\libfat.a(file_allocation_table.o)
 .ARM.attributes
                0x000002d2       0x29 c:/devkitPro/libnds/lib\libfat.a(filetime.o)
 .ARM.attributes
                0x000002fb       0x29 c:/devkitPro/libnds/lib\libfat.a(lock.o)
 .ARM.attributes
                0x00000324       0x29 c:/devkitPro/libnds/lib\libnds9.a(console.o)
 .ARM.attributes
                0x0000034d       0x29 c:/devkitPro/libnds/lib\libnds9.a(sprite.o)
 .ARM.attributes
                0x00000376       0x29 c:/devkitPro/libnds/lib\libnds9.a(sprite_alloc.o)
 .ARM.attributes
                0x0000039f       0x29 c:/devkitPro/libnds/lib\libnds9.a(trig.o)
 .ARM.attributes
                0x000003c8       0x29 c:/devkitPro/libnds/lib\libnds9.a(video.o)
 .ARM.attributes
                0x000003f1       0x29 c:/devkitPro/libnds/lib\libnds9.a(dldi.o)
 .ARM.attributes
                0x0000041a       0x29 c:/devkitPro/libnds/lib\libnds9.a(dsi_sd.o)
 .ARM.attributes
                0x00000443       0x29 c:/devkitPro/libnds/lib\libnds9.a(initSystem.o)
 .ARM.attributes
                0x0000046c       0x29 c:/devkitPro/libnds/lib\libnds9.a(card.o)
 .ARM.attributes
                0x00000495       0x29 c:/devkitPro/libnds/lib\libnds9.a(fifosystem.o)
 .ARM.attributes
                0x000004be       0x29 c:/devkitPro/libnds/lib\libnds9.a(interrupts.o)
 .ARM.attributes
                0x000004e7       0x29 c:/devkitPro/libnds/lib\libnds9.a(libnds_exit.arm.o)
 .ARM.attributes
                0x00000510       0x1d c:/devkitPro/libnds/lib\libnds9.a(dcache.o)
 .ARM.attributes
                0x0000052d       0x1d c:/devkitPro/libnds/lib\libnds9.a(dldi_stub.o)
 .ARM.attributes
                0x0000054a       0x23 c:/devkitPro/libnds/lib\libnds9.a(mpu_setup.o)
 .ARM.attributes
                0x0000056d       0x1d c:/devkitPro/libnds/lib\libnds9.a(biosCalls.o)
 .ARM.attributes
                0x0000058a       0x1d c:/devkitPro/libnds/lib\libnds9.a(debugprint.o)
 .ARM.attributes
                0x000005a7       0x1d c:/devkitPro/libnds/lib\libnds9.a(interruptDispatcher.o)
 .ARM.attributes
                0x000005c4       0x23 c:/devkitPro/libnds/lib\libnds9.a(swiSoftReset.o)
 .ARM.attributes
                0x000005e7       0x16 c:/devkitPro/libnds/lib\libnds9.a(default_font.bin.o)
 .ARM.attributes
                0x000005fd       0x29 c:/devkitPro/libnds/lib\libnds9.a(background.o)
 .ARM.attributes
                0x00000626       0x29 c:/devkitPro/libnds/lib\libnds9.a(system.o)
 .ARM.attributes
                0x0000064f       0x1a c:/devkitpro/devkitarm/bin/../lib/gcc/arm-none-eabi/4.7.1/thumb\libgcc.a(_udivsi3.o)
 .ARM.attributes
                0x00000669       0x1a c:/devkitpro/devkitarm/bin/../lib/gcc/arm-none-eabi/4.7.1/thumb\libgcc.a(_divsi3.o)
 .ARM.attributes
                0x00000683       0x18 c:/devkitpro/devkitarm/bin/../lib/gcc/arm-none-eabi/4.7.1/thumb\libgcc.a(_dvmd_tls.o)
 .ARM.attributes
                0x0000069b       0x32 c:/devkitpro/devkitarm/bin/../lib/gcc/arm-none-eabi/4.7.1/thumb\libgcc.a(_muldi3.o)
 .ARM.attributes
                0x000006cd       0x32 c:/devkitpro/devkitarm/bin/../lib/gcc/arm-none-eabi/4.7.1/../../../../arm-none-eabi/lib/thumb\libg.a(lib_a-bsearch.o)
 .ARM.attributes
                0x000006ff       0x32 c:/devkitpro/devkitarm/bin/../lib/gcc/arm-none-eabi/4.7.1/../../../../arm-none-eabi/lib/thumb\libg.a(lib_a-calloc.o)
 .ARM.attributes
                0x00000731       0x32 c:/devkitpro/devkitarm/bin/../lib/gcc/arm-none-eabi/4.7.1/../../../../arm-none-eabi/lib/thumb\libg.a(lib_a-callocr.o)
 .ARM.attributes
                0x00000763       0x32 c:/devkitpro/devkitarm/bin/../lib/gcc/arm-none-eabi/4.7.1/../../../../arm-none-eabi/lib/thumb\libg.a(lib_a-ctype_.o)
 .ARM.attributes
                0x00000795       0x32 c:/devkitpro/devkitarm/bin/../lib/gcc/arm-none-eabi/4.7.1/../../../../arm-none-eabi/lib/thumb\libg.a(lib_a-fclose.o)
 .ARM.attributes
                0x000007c7       0x32 c:/devkitpro/devkitarm/bin/../lib/gcc/arm-none-eabi/4.7.1/../../../../arm-none-eabi/lib/thumb\libg.a(lib_a-fflush.o)
 .ARM.attributes
                0x000007f9       0x32 c:/devkitpro/devkitarm/bin/../lib/gcc/arm-none-eabi/4.7.1/../../../../arm-none-eabi/lib/thumb\libg.a(lib_a-findfp.o)
 .ARM.attributes
                0x0000082b       0x32 c:/devkitpro/devkitarm/bin/../lib/gcc/arm-none-eabi/4.7.1/../../../../arm-none-eabi/lib/thumb\libg.a(lib_a-fopen.o)
 .ARM.attributes
                0x0000085d       0x32 c:/devkitpro/devkitarm/bin/../lib/gcc/arm-none-eabi/4.7.1/../../../../arm-none-eabi/lib/thumb\libg.a(lib_a-fread.o)
 .ARM.attributes
                0x0000088f       0x32 c:/devkitpro/devkitarm/bin/../lib/gcc/arm-none-eabi/4.7.1/../../../../arm-none-eabi/lib/thumb\libg.a(lib_a-freer.o)
 .ARM.attributes
                0x000008c1       0x32 c:/devkitpro/devkitarm/bin/../lib/gcc/arm-none-eabi/4.7.1/../../../../arm-none-eabi/lib/thumb\libg.a(lib_a-fseek.o)
 .ARM.attributes
                0x000008f3       0x32 c:/devkitpro/devkitarm/bin/../lib/gcc/arm-none-eabi/4.7.1/../../../../arm-none-eabi/lib/thumb\libg.a(lib_a-ftell.o)
 .ARM.attributes
                0x00000925       0x32 c:/devkitpro/devkitarm/bin/../lib/gcc/arm-none-eabi/4.7.1/../../../../arm-none-eabi/lib/thumb\libg.a(lib_a-fwalk.o)
 .ARM.attributes
                0x00000957       0x32 c:/devkitpro/devkitarm/bin/../lib/gcc/arm-none-eabi/4.7.1/../../../../arm-none-eabi/lib/thumb\libg.a(lib_a-impure.o)
 .ARM.attributes
                0x00000989       0x32 c:/devkitpro/devkitarm/bin/../lib/gcc/arm-none-eabi/4.7.1/../../../../arm-none-eabi/lib/thumb\libg.a(lib_a-init.o)
 .ARM.attributes
                0x000009bb       0x32 c:/devkitpro/devkitarm/bin/../lib/gcc/arm-none-eabi/4.7.1/../../../../arm-none-eabi/lib/thumb\libg.a(lib_a-iprintf.o)
 .ARM.attributes
                0x000009ed       0x32 c:/devkitpro/devkitarm/bin/../lib/gcc/arm-none-eabi/4.7.1/../../../../arm-none-eabi/lib/thumb\libg.a(lib_a-lcltime_r.o)
 .ARM.attributes
                0x00000a1f       0x32 c:/devkitpro/devkitarm/bin/../lib/gcc/arm-none-eabi/4.7.1/../../../../arm-none-eabi/lib/thumb\libg.a(lib_a-locale.o)
 .ARM.attributes
                0x00000a51       0x32 c:/devkitpro/devkitarm/bin/../lib/gcc/arm-none-eabi/4.7.1/../../../../arm-none-eabi/lib/thumb\libg.a(lib_a-makebuf.o)
 .ARM.attributes
                0x00000a83       0x32 c:/devkitpro/devkitarm/bin/../lib/gcc/arm-none-eabi/4.7.1/../../../../arm-none-eabi/lib/thumb\libg.a(lib_a-malloc.o)
 .ARM.attributes
                0x00000ab5       0x32 c:/devkitpro/devkitarm/bin/../lib/gcc/arm-none-eabi/4.7.1/../../../../arm-none-eabi/lib/thumb\libg.a(lib_a-mallocr.o)
 .ARM.attributes
                0x00000ae7       0x32 c:/devkitpro/devkitarm/bin/../lib/gcc/arm-none-eabi/4.7.1/../../../../arm-none-eabi/lib/thumb\libg.a(lib_a-mbrtowc.o)
 .ARM.attributes
                0x00000b19       0x32 c:/devkitpro/devkitarm/bin/../lib/gcc/arm-none-eabi/4.7.1/../../../../arm-none-eabi/lib/thumb\libg.a(lib_a-mbsrtowcs.o)
 .ARM.attributes
                0x00000b4b       0x32 c:/devkitpro/devkitarm/bin/../lib/gcc/arm-none-eabi/4.7.1/../../../../arm-none-eabi/lib/thumb\libg.a(lib_a-mbtowc_r.o)
 .ARM.attributes
                0x00000b7d       0x32 c:/devkitpro/devkitarm/bin/../lib/gcc/arm-none-eabi/4.7.1/../../../../arm-none-eabi/lib/thumb\libg.a(lib_a-memcmp.o)
 .ARM.attributes
                0x00000baf       0x32 c:/devkitpro/devkitarm/bin/../lib/gcc/arm-none-eabi/4.7.1/../../../../arm-none-eabi/lib/thumb\libg.a(lib_a-memcpy-stub.o)
 .ARM.attributes
                0x00000be1       0x32 c:/devkitpro/devkitarm/bin/../lib/gcc/arm-none-eabi/4.7.1/../../../../arm-none-eabi/lib/thumb\libg.a(lib_a-memmove.o)
 .ARM.attributes
                0x00000c13       0x32 c:/devkitpro/devkitarm/bin/../lib/gcc/arm-none-eabi/4.7.1/../../../../arm-none-eabi/lib/thumb\libg.a(lib_a-memset.o)
 .ARM.attributes
                0x00000c45       0x32 c:/devkitpro/devkitarm/bin/../lib/gcc/arm-none-eabi/4.7.1/../../../../arm-none-eabi/lib/thumb\libg.a(lib_a-mktime.o)
 .ARM.attributes
                0x00000c77       0x32 c:/devkitpro/devkitarm/bin/../lib/gcc/arm-none-eabi/4.7.1/../../../../arm-none-eabi/lib/thumb\libg.a(lib_a-mktm_r.o)
 .ARM.attributes
                0x00000ca9       0x32 c:/devkitpro/devkitarm/bin/../lib/gcc/arm-none-eabi/4.7.1/../../../../arm-none-eabi/lib/thumb\libg.a(lib_a-mlock.o)
 .ARM.attributes
                0x00000cdb       0x32 c:/devkitpro/devkitarm/bin/../lib/gcc/arm-none-eabi/4.7.1/../../../../arm-none-eabi/lib/thumb\libg.a(lib_a-realloc.o)
 .ARM.attributes
                0x00000d0d       0x32 c:/devkitpro/devkitarm/bin/../lib/gcc/arm-none-eabi/4.7.1/../../../../arm-none-eabi/lib/thumb\libg.a(lib_a-reallocr.o)
 .ARM.attributes
                0x00000d3f       0x32 c:/devkitpro/devkitarm/bin/../lib/gcc/arm-none-eabi/4.7.1/../../../../arm-none-eabi/lib/thumb\libg.a(lib_a-refill.o)
 .ARM.attributes
                0x00000d71       0x32 c:/devkitpro/devkitarm/bin/../lib/gcc/arm-none-eabi/4.7.1/../../../../arm-none-eabi/lib/thumb\libg.a(lib_a-rewind.o)
 .ARM.attributes
                0x00000da3       0x32 c:/devkitpro/devkitarm/bin/../lib/gcc/arm-none-eabi/4.7.1/../../../../arm-none-eabi/lib/thumb\libg.a(lib_a-setvbuf.o)
 .ARM.attributes
                0x00000dd5       0x32 c:/devkitpro/devkitarm/bin/../lib/gcc/arm-none-eabi/4.7.1/../../../../arm-none-eabi/lib/thumb\libg.a(lib_a-siscanf.o)
 .ARM.attributes
                0x00000e07       0x32 c:/devkitpro/devkitarm/bin/../lib/gcc/arm-none-eabi/4.7.1/../../../../arm-none-eabi/lib/thumb\libg.a(lib_a-sprintf.o)
 .ARM.attributes
                0x00000e39       0x32 c:/devkitpro/devkitarm/bin/../lib/gcc/arm-none-eabi/4.7.1/../../../../arm-none-eabi/lib/thumb\libg.a(lib_a-stdio.o)
 .ARM.attributes
                0x00000e6b       0x32 c:/devkitpro/devkitarm/bin/../lib/gcc/arm-none-eabi/4.7.1/../../../../arm-none-eabi/lib/thumb\libg.a(lib_a-stpcpy.o)
 .ARM.attributes
                0x00000e9d       0x32 c:/devkitpro/devkitarm/bin/../lib/gcc/arm-none-eabi/4.7.1/../../../../arm-none-eabi/lib/thumb\libg.a(lib_a-strcasecmp.o)
 .ARM.attributes
                0x00000ecf       0x32 c:/devkitpro/devkitarm/bin/../lib/gcc/arm-none-eabi/4.7.1/../../../../arm-none-eabi/lib/thumb\libg.a(lib_a-strcat.o)
 .ARM.attributes
                0x00000f01       0x32 c:/devkitpro/devkitarm/bin/../lib/gcc/arm-none-eabi/4.7.1/../../../../arm-none-eabi/lib/thumb\libg.a(lib_a-strchr.o)
 .ARM.attributes
                0x00000f33       0x32 c:/devkitpro/devkitarm/bin/../lib/gcc/arm-none-eabi/4.7.1/../../../../arm-none-eabi/lib/thumb\libg.a(lib_a-strcmp.o)
 .ARM.attributes
                0x00000f65       0x32 c:/devkitpro/devkitarm/bin/../lib/gcc/arm-none-eabi/4.7.1/../../../../arm-none-eabi/lib/thumb\libg.a(lib_a-strcpy.o)
 .ARM.attributes
                0x00000f97       0x32 c:/devkitpro/devkitarm/bin/../lib/gcc/arm-none-eabi/4.7.1/../../../../arm-none-eabi/lib/thumb\libg.a(lib_a-strlcpy.o)
 .ARM.attributes
                0x00000fc9       0x32 c:/devkitpro/devkitarm/bin/../lib/gcc/arm-none-eabi/4.7.1/../../../../arm-none-eabi/lib/thumb\libg.a(lib_a-strlen.o)
 .ARM.attributes
                0x00000ffb       0x32 c:/devkitpro/devkitarm/bin/../lib/gcc/arm-none-eabi/4.7.1/../../../../arm-none-eabi/lib/thumb\libg.a(lib_a-strncasecmp.o)
 .ARM.attributes
                0x0000102d       0x32 c:/devkitpro/devkitarm/bin/../lib/gcc/arm-none-eabi/4.7.1/../../../../arm-none-eabi/lib/thumb\libg.a(lib_a-strncmp.o)
 .ARM.attributes
                0x0000105f       0x32 c:/devkitpro/devkitarm/bin/../lib/gcc/arm-none-eabi/4.7.1/../../../../arm-none-eabi/lib/thumb\libg.a(lib_a-strncpy.o)
 .ARM.attributes
                0x00001091       0x32 c:/devkitpro/devkitarm/bin/../lib/gcc/arm-none-eabi/4.7.1/../../../../arm-none-eabi/lib/thumb\libg.a(lib_a-strnlen.o)
 .ARM.attributes
                0x000010c3       0x32 c:/devkitpro/devkitarm/bin/../lib/gcc/arm-none-eabi/4.7.1/../../../../arm-none-eabi/lib/thumb\libg.a(lib_a-strpbrk.o)
 .ARM.attributes
                0x000010f5       0x32 c:/devkitpro/devkitarm/bin/../lib/gcc/arm-none-eabi/4.7.1/../../../../arm-none-eabi/lib/thumb\libg.a(lib_a-strrchr.o)
 .ARM.attributes
                0x00001127       0x32 c:/devkitpro/devkitarm/bin/../lib/gcc/arm-none-eabi/4.7.1/../../../../arm-none-eabi/lib/thumb\libg.a(lib_a-strtol.o)
 .ARM.attributes
                0x00001159       0x32 c:/devkitpro/devkitarm/bin/../lib/gcc/arm-none-eabi/4.7.1/../../../../arm-none-eabi/lib/thumb\libg.a(lib_a-svfiscanf.o)
 .ARM.attributes
                0x0000118b       0x32 c:/devkitpro/devkitarm/bin/../lib/gcc/arm-none-eabi/4.7.1/../../../../arm-none-eabi/lib/thumb\libg.a(lib_a-svfprintf.o)
 .ARM.attributes
                0x000011bd       0x32 c:/devkitpro/devkitarm/bin/../lib/gcc/arm-none-eabi/4.7.1/../../../../arm-none-eabi/lib/thumb\libg.a(lib_a-sysclose.o)
 .ARM.attributes
                0x000011ef       0x32 c:/devkitpro/devkitarm/bin/../lib/gcc/arm-none-eabi/4.7.1/../../../../arm-none-eabi/lib/thumb\libg.a(lib_a-syslseek.o)
 .ARM.attributes
                0x00001221       0x32 c:/devkitpro/devkitarm/bin/../lib/gcc/arm-none-eabi/4.7.1/../../../../arm-none-eabi/lib/thumb\libg.a(lib_a-sysopen.o)
 .ARM.attributes
                0x00001253       0x32 c:/devkitpro/devkitarm/bin/../lib/gcc/arm-none-eabi/4.7.1/../../../../arm-none-eabi/lib/thumb\libg.a(lib_a-sysread.o)
 .ARM.attributes
                0x00001285       0x32 c:/devkitpro/devkitarm/bin/../lib/gcc/arm-none-eabi/4.7.1/../../../../arm-none-eabi/lib/thumb\libg.a(lib_a-time.o)
 .ARM.attributes
                0x000012b7       0x32 c:/devkitpro/devkitarm/bin/../lib/gcc/arm-none-eabi/4.7.1/../../../../arm-none-eabi/lib/thumb\libg.a(lib_a-towlower.o)
 .ARM.attributes
                0x000012e9       0x32 c:/devkitpro/devkitarm/bin/../lib/gcc/arm-none-eabi/4.7.1/../../../../arm-none-eabi/lib/thumb\libg.a(lib_a-towupper.o)
 .ARM.attributes
                0x0000131b       0x32 c:/devkitpro/devkitarm/bin/../lib/gcc/arm-none-eabi/4.7.1/../../../../arm-none-eabi/lib/thumb\libg.a(lib_a-tzlock.o)
 .ARM.attributes
                0x0000134d       0x32 c:/devkitpro/devkitarm/bin/../lib/gcc/arm-none-eabi/4.7.1/../../../../arm-none-eabi/lib/thumb\libg.a(lib_a-tzvars.o)
 .ARM.attributes
                0x0000137f       0x32 c:/devkitpro/devkitarm/bin/../lib/gcc/arm-none-eabi/4.7.1/../../../../arm-none-eabi/lib/thumb\libg.a(lib_a-ungetc.o)
 .ARM.attributes
                0x000013b1       0x32 c:/devkitpro/devkitarm/bin/../lib/gcc/arm-none-eabi/4.7.1/../../../../arm-none-eabi/lib/thumb\libg.a(lib_a-vfiprintf.o)
 .ARM.attributes
                0x000013e3       0x32 c:/devkitpro/devkitarm/bin/../lib/gcc/arm-none-eabi/4.7.1/../../../../arm-none-eabi/lib/thumb\libg.a(lib_a-wcrtomb.o)
 .ARM.attributes
                0x00001415       0x32 c:/devkitpro/devkitarm/bin/../lib/gcc/arm-none-eabi/4.7.1/../../../../arm-none-eabi/lib/thumb\libg.a(lib_a-wcsrtombs.o)
 .ARM.attributes
                0x00001447       0x32 c:/devkitpro/devkitarm/bin/../lib/gcc/arm-none-eabi/4.7.1/../../../../arm-none-eabi/lib/thumb\libg.a(lib_a-wctob.o)
 .ARM.attributes
                0x00001479       0x32 c:/devkitpro/devkitarm/bin/../lib/gcc/arm-none-eabi/4.7.1/../../../../arm-none-eabi/lib/thumb\libg.a(lib_a-wctomb_r.o)
 .ARM.attributes
                0x000014ab       0x32 c:/devkitpro/devkitarm/bin/../lib/gcc/arm-none-eabi/4.7.1/../../../../arm-none-eabi/lib/thumb\libg.a(lib_a-wsetup.o)
 .ARM.attributes
                0x000014dd       0x32 c:/devkitpro/devkitarm/bin/../lib/gcc/arm-none-eabi/4.7.1/../../../../arm-none-eabi/lib/thumb\libg.a(lib_a-div.o)
 .ARM.attributes
                0x0000150f       0x32 c:/devkitpro/devkitarm/bin/../lib/gcc/arm-none-eabi/4.7.1/../../../../arm-none-eabi/lib/thumb\libg.a(lib_a-dtoa.o)
 .ARM.attributes
                0x00001541       0x32 c:/devkitpro/devkitarm/bin/../lib/gcc/arm-none-eabi/4.7.1/../../../../arm-none-eabi/lib/thumb\libg.a(lib_a-flags.o)
 .ARM.attributes
                0x00001573       0x32 c:/devkitpro/devkitarm/bin/../lib/gcc/arm-none-eabi/4.7.1/../../../../arm-none-eabi/lib/thumb\libg.a(lib_a-fputwc.o)
 .ARM.attributes
                0x000015a5       0x32 c:/devkitpro/devkitarm/bin/../lib/gcc/arm-none-eabi/4.7.1/../../../../arm-none-eabi/lib/thumb\libg.a(lib_a-fvwrite.o)
 .ARM.attributes
                0x000015d7       0x32 c:/devkitpro/devkitarm/bin/../lib/gcc/arm-none-eabi/4.7.1/../../../../arm-none-eabi/lib/thumb\libg.a(lib_a-getenv_r.o)
 .ARM.attributes
                0x00001609       0x32 c:/devkitpro/devkitarm/bin/../lib/gcc/arm-none-eabi/4.7.1/../../../../arm-none-eabi/lib/thumb\libg.a(lib_a-gettzinfo.o)
 .ARM.attributes
                0x0000163b       0x32 c:/devkitpro/devkitarm/bin/../lib/gcc/arm-none-eabi/4.7.1/../../../../arm-none-eabi/lib/thumb\libg.a(lib_a-iswspace.o)
 .ARM.attributes
                0x0000166d       0x32 c:/devkitpro/devkitarm/bin/../lib/gcc/arm-none-eabi/4.7.1/../../../../arm-none-eabi/lib/thumb\libg.a(lib_a-jp2uc.o)
 .ARM.attributes
                0x0000169f       0x32 c:/devkitpro/devkitarm/bin/../lib/gcc/arm-none-eabi/4.7.1/../../../../arm-none-eabi/lib/thumb\libg.a(lib_a-mbsnrtowcs.o)
 .ARM.attributes
                0x000016d1       0x32 c:/devkitpro/devkitarm/bin/../lib/gcc/arm-none-eabi/4.7.1/../../../../arm-none-eabi/lib/thumb\libg.a(lib_a-memchr-stub.o)
 .ARM.attributes
                0x00001703       0x32 c:/devkitpro/devkitarm/bin/../lib/gcc/arm-none-eabi/4.7.1/../../../../arm-none-eabi/lib/thumb\libg.a(lib_a-mprec.o)
 .ARM.attributes
                0x00001735       0x32 c:/devkitpro/devkitarm/bin/../lib/gcc/arm-none-eabi/4.7.1/../../../../arm-none-eabi/lib/thumb\libg.a(lib_a-sccl.o)
 .ARM.attributes
                0x00001767       0x32 c:/devkitpro/devkitarm/bin/../lib/gcc/arm-none-eabi/4.7.1/../../../../arm-none-eabi/lib/thumb\libg.a(lib_a-s_fpclassify.o)
 .ARM.attributes
                0x00001799       0x32 c:/devkitpro/devkitarm/bin/../lib/gcc/arm-none-eabi/4.7.1/../../../../arm-none-eabi/lib/thumb\libg.a(lib_a-strtoll_r.o)
 .ARM.attributes
                0x000017cb       0x32 c:/devkitpro/devkitarm/bin/../lib/gcc/arm-none-eabi/4.7.1/../../../../arm-none-eabi/lib/thumb\libg.a(lib_a-strtoull_r.o)
 .ARM.attributes
                0x000017fd       0x32 c:/devkitpro/devkitarm/bin/../lib/gcc/arm-none-eabi/4.7.1/../../../../arm-none-eabi/lib/thumb\libg.a(lib_a-strtoul.o)
 .ARM.attributes
                0x0000182f       0x32 c:/devkitpro/devkitarm/bin/../lib/gcc/arm-none-eabi/4.7.1/../../../../arm-none-eabi/lib/thumb\libg.a(lib_a-svfiprintf.o)
 .ARM.attributes
                0x00001861       0x32 c:/devkitpro/devkitarm/bin/../lib/gcc/arm-none-eabi/4.7.1/../../../../arm-none-eabi/lib/thumb\libg.a(lib_a-wbuf.o)
 .ARM.attributes
                0x00001893       0x32 c:/devkitpro/devkitarm/bin/../lib/gcc/arm-none-eabi/4.7.1/../../../../arm-none-eabi/lib/thumb\libg.a(lib_a-wcsnrtombs.o)
 .ARM.attributes
                0x000018c5       0x32 c:/devkitpro/devkitarm/bin/../lib/gcc/arm-none-eabi/4.7.1/../../../../arm-none-eabi/lib/thumb\libg.a(lib_a-environ.o)
 .ARM.attributes
                0x000018f7       0x32 c:/devkitpro/devkitarm/bin/../lib/gcc/arm-none-eabi/4.7.1/../../../../arm-none-eabi/lib/thumb\libg.a(lib_a-envlock.o)
 .ARM.attributes
                0x00001929       0x32 c:/devkitpro/devkitarm/bin/../lib/gcc/arm-none-eabi/4.7.1/../../../../arm-none-eabi/lib/thumb\libsysbase.a(iosupport.o)
 .ARM.attributes
                0x0000195b       0x32 c:/devkitpro/devkitarm/bin/../lib/gcc/arm-none-eabi/4.7.1/../../../../arm-none-eabi/lib/thumb\libsysbase.a(close.o)
 .ARM.attributes
                0x0000198d       0x32 c:/devkitpro/devkitarm/bin/../lib/gcc/arm-none-eabi/4.7.1/../../../../arm-none-eabi/lib/thumb\libsysbase.a(fstat.o)
 .ARM.attributes
                0x000019bf       0x32 c:/devkitpro/devkitarm/bin/../lib/gcc/arm-none-eabi/4.7.1/../../../../arm-none-eabi/lib/thumb\libsysbase.a(isatty.o)
 .ARM.attributes
                0x000019f1       0x32 c:/devkitpro/devkitarm/bin/../lib/gcc/arm-none-eabi/4.7.1/../../../../arm-none-eabi/lib/thumb\libsysbase.a(lseek.o)
 .ARM.attributes
                0x00001a23       0x32 c:/devkitpro/devkitarm/bin/../lib/gcc/arm-none-eabi/4.7.1/../../../../arm-none-eabi/lib/thumb\libsysbase.a(open.o)
 .ARM.attributes
                0x00001a55       0x32 c:/devkitpro/devkitarm/bin/../lib/gcc/arm-none-eabi/4.7.1/../../../../arm-none-eabi/lib/thumb\libsysbase.a(read.o)
 .ARM.attributes
                0x00001a87       0x32 c:/devkitpro/devkitarm/bin/../lib/gcc/arm-none-eabi/4.7.1/../../../../arm-none-eabi/lib/thumb\libsysbase.a(sbrk.o)
 .ARM.attributes
                0x00001ab9       0x32 c:/devkitpro/devkitarm/bin/../lib/gcc/arm-none-eabi/4.7.1/../../../../arm-none-eabi/lib/thumb\libsysbase.a(times.o)
 .ARM.attributes
                0x00001aeb       0x32 c:/devkitpro/devkitarm/bin/../lib/gcc/arm-none-eabi/4.7.1/../../../../arm-none-eabi/lib/thumb\libsysbase.a(write.o)
 .ARM.attributes
                0x00001b1d       0x32 c:/devkitpro/devkitarm/bin/../lib/gcc/arm-none-eabi/4.7.1/../../../../arm-none-eabi/lib/thumb\libsysbase.a(malloc_vars.o)
 .ARM.attributes
                0x00001b4f       0x32 c:/devkitpro/devkitarm/bin/../lib/gcc/arm-none-eabi/4.7.1/../../../../arm-none-eabi/lib/thumb\libsysbase.a(chdir.o)
 .ARM.attributes
                0x00001b81       0x32 c:/devkitpro/devkitarm/bin/../lib/gcc/arm-none-eabi/4.7.1/../../../../arm-none-eabi/lib/thumb\libsysbase.a(build_argv.o)
 .ARM.attributes
                0x00001bb3       0x32 c:/devkitpro/devkitarm/bin/../lib/gcc/arm-none-eabi/4.7.1/../../../../arm-none-eabi/lib/thumb\libsysbase.a(syscall_support.o)
 .ARM.attributes
                0x00001be5       0x32 c:/devkitpro/devkitarm/bin/../lib/gcc/arm-none-eabi/4.7.1/../../../../arm-none-eabi/lib/thumb\libsysbase.a(handle_manager.o)
 .ARM.attributes
                0x00001c17       0x1a c:/devkitpro/devkitarm/bin/../lib/gcc/arm-none-eabi/4.7.1/thumb\libgcc.a(_arm_addsubdf3.o)
 .ARM.attributes
                0x00001c31       0x1a c:/devkitpro/devkitarm/bin/../lib/gcc/arm-none-eabi/4.7.1/thumb\libgcc.a(_arm_muldivdf3.o)
 .ARM.attributes
                0x00001c4b       0x1a c:/devkitpro/devkitarm/bin/../lib/gcc/arm-none-eabi/4.7.1/thumb\libgcc.a(_arm_cmpdf2.o)
 .ARM.attributes
                0x00001c65       0x1a c:/devkitpro/devkitarm/bin/../lib/gcc/arm-none-eabi/4.7.1/thumb\libgcc.a(_arm_fixdfsi.o)
 .ARM.attributes
                0x00001c7f       0x1a c:/devkitpro/devkitarm/bin/../lib/gcc/arm-none-eabi/4.7.1/thumb\libgcc.a(_aeabi_uldivmod.o)
 .ARM.attributes
                0x00001c99       0x32 c:/devkitpro/devkitarm/bin/../lib/gcc/arm-none-eabi/4.7.1/thumb\libgcc.a(bpabi.o)
 .ARM.attributes
                0x00001ccb       0x32 c:/devkitpro/devkitarm/bin/../lib/gcc/arm-none-eabi/4.7.1/thumb\libgcc.a(_divdi3.o)
 .ARM.attributes
                0x00001cfd       0x32 c:/devkitpro/devkitarm/bin/../lib/gcc/arm-none-eabi/4.7.1/thumb\libgcc.a(_udivdi3.o)
 .ARM.attributes
                0x00001d2f       0x1a c:/devkitpro/devkitarm/bin/../lib/gcc/arm-none-eabi/4.7.1/thumb\libgcc.a(_clzsi2.o)
 .ARM.attributes
                0x00001d49       0x32 c:/devkitpro/devkitarm/bin/../lib/gcc/arm-none-eabi/4.7.1/../../../../arm-none-eabi/lib/thumb\libg.a(lib_a-errno.o)
 .ARM.attributes
                0x00001d7b       0x32 c:/devkitpro/devkitarm/bin/../lib/gcc/arm-none-eabi/4.7.1/thumb/crtend.o
 .ARM.attributes
                0x00001dad       0x18 c:/devkitpro/devkitarm/bin/../lib/gcc/arm-none-eabi/4.7.1/thumb/crtn.o

.debug
 *(.debug)

.line
 *(.line)

.debug_srcinfo
 *(.debug_srcinfo)

.debug_sfnames
 *(.debug_sfnames)

.debug_aranges  0x00000000      0x4c0
 *(.debug_aranges)
 .debug_aranges
                0x00000000       0x20 main.o
 .debug_aranges
                0x00000020       0x20 c:/Users/Derrick/Desktop/nflib_20120804/nflib/examples/graphics/backbuffer/nflib/lib\libnflib.a(nf_2d.o)
 .debug_aranges
                0x00000040       0x20 c:/Users/Derrick/Desktop/nflib_20120804/nflib/examples/graphics/backbuffer/nflib/lib\libnflib.a(nf_basic.o)
 .debug_aranges
                0x00000060       0x20 c:/Users/Derrick/Desktop/nflib_20120804/nflib/examples/graphics/backbuffer/nflib/lib\libnflib.a(nf_bitmapbg.o)
 .debug_aranges
                0x00000080       0x20 c:/Users/Derrick/Desktop/nflib_20120804/nflib/examples/graphics/backbuffer/nflib/lib\libnflib.a(nf_sprite256.o)
 .debug_aranges
                0x000000a0       0x20 c:/Users/Derrick/Desktop/nflib_20120804/nflib/examples/graphics/backbuffer/nflib/lib\libnflib.a(nf_tiledbg.o)
 .debug_aranges
                0x000000c0       0x20 c:/devkitPro/libnds/lib\libfilesystem.a(nitrofs.o)
 .debug_aranges
                0x000000e0       0x20 c:/devkitPro/libnds/lib\libfat.a(libfat.o)
 .debug_aranges
                0x00000100       0x20 c:/devkitPro/libnds/lib\libfat.a(partition.o)
 .debug_aranges
                0x00000120       0x20 c:/devkitPro/libnds/lib\libfat.a(cache.o)
 .debug_aranges
                0x00000140       0x20 c:/devkitPro/libnds/lib\libfat.a(directory.o)
 .debug_aranges
                0x00000160       0x20 c:/devkitPro/libnds/lib\libfat.a(disc.o)
 .debug_aranges
                0x00000180       0x20 c:/devkitPro/libnds/lib\libfat.a(fatdir.o)
 .debug_aranges
                0x000001a0       0x20 c:/devkitPro/libnds/lib\libfat.a(fatfile.o)
 .debug_aranges
                0x000001c0       0x20 c:/devkitPro/libnds/lib\libfat.a(file_allocation_table.o)
 .debug_aranges
                0x000001e0       0x20 c:/devkitPro/libnds/lib\libfat.a(filetime.o)
 .debug_aranges
                0x00000200       0x20 c:/devkitPro/libnds/lib\libfat.a(lock.o)
 .debug_aranges
                0x00000220       0x20 c:/devkitPro/libnds/lib\libnds9.a(console.o)
 .debug_aranges
                0x00000240       0x20 c:/devkitPro/libnds/lib\libnds9.a(sprite.o)
 .debug_aranges
                0x00000260       0x20 c:/devkitPro/libnds/lib\libnds9.a(sprite_alloc.o)
 .debug_aranges
                0x00000280       0x20 c:/devkitPro/libnds/lib\libnds9.a(trig.o)
 .debug_aranges
                0x000002a0       0x20 c:/devkitPro/libnds/lib\libnds9.a(video.o)
 .debug_aranges
                0x000002c0       0x20 c:/devkitPro/libnds/lib\libnds9.a(dldi.o)
 .debug_aranges
                0x000002e0       0x20 c:/devkitPro/libnds/lib\libnds9.a(dsi_sd.o)
 .debug_aranges
                0x00000300       0x20 c:/devkitPro/libnds/lib\libnds9.a(initSystem.o)
 .debug_aranges
                0x00000320       0x20 c:/devkitPro/libnds/lib\libnds9.a(card.o)
 .debug_aranges
                0x00000340       0x20 c:/devkitPro/libnds/lib\libnds9.a(fifosystem.o)
 .debug_aranges
                0x00000360       0x20 c:/devkitPro/libnds/lib\libnds9.a(interrupts.o)
 .debug_aranges
                0x00000380       0x20 c:/devkitPro/libnds/lib\libnds9.a(libnds_exit.arm.o)
 .debug_aranges
                0x000003a0       0x20 c:/devkitPro/libnds/lib\libnds9.a(dcache.o)
 .debug_aranges
                0x000003c0       0x20 c:/devkitPro/libnds/lib\libnds9.a(dldi_stub.o)
 .debug_aranges
                0x000003e0       0x20 c:/devkitPro/libnds/lib\libnds9.a(mpu_setup.o)
 .debug_aranges
                0x00000400       0x20 c:/devkitPro/libnds/lib\libnds9.a(biosCalls.o)
 .debug_aranges
                0x00000420       0x20 c:/devkitPro/libnds/lib\libnds9.a(debugprint.o)
 .debug_aranges
                0x00000440       0x20 c:/devkitPro/libnds/lib\libnds9.a(interruptDispatcher.o)
 .debug_aranges
                0x00000460       0x20 c:/devkitPro/libnds/lib\libnds9.a(swiSoftReset.o)
 .debug_aranges
                0x00000480       0x20 c:/devkitPro/libnds/lib\libnds9.a(background.o)
 .debug_aranges
                0x000004a0       0x20 c:/devkitPro/libnds/lib\libnds9.a(system.o)

.debug_pubnames
                0x00000000       0x43
 *(.debug_pubnames)
 .debug_pubnames
                0x00000000       0x43 c:/devkitPro/libnds/lib\libfilesystem.a(nitrofs.o)

.debug_info     0x00000000    0x27766
 *(.debug_info)
 .debug_info    0x00000000      0x782 main.o
 .debug_info    0x00000782     0x16f7 c:/Users/Derrick/Desktop/nflib_20120804/nflib/examples/graphics/backbuffer/nflib/lib\libnflib.a(nf_2d.o)
 .debug_info    0x00001e79     0x1455 c:/Users/Derrick/Desktop/nflib_20120804/nflib/examples/graphics/backbuffer/nflib/lib\libnflib.a(nf_basic.o)
 .debug_info    0x000032ce     0x23e8 c:/Users/Derrick/Desktop/nflib_20120804/nflib/examples/graphics/backbuffer/nflib/lib\libnflib.a(nf_bitmapbg.o)
 .debug_info    0x000056b6     0x2df8 c:/Users/Derrick/Desktop/nflib_20120804/nflib/examples/graphics/backbuffer/nflib/lib\libnflib.a(nf_sprite256.o)
 .debug_info    0x000084ae     0x399e c:/Users/Derrick/Desktop/nflib_20120804/nflib/examples/graphics/backbuffer/nflib/lib\libnflib.a(nf_tiledbg.o)
 .debug_info    0x0000be4c     0x2161 c:/devkitPro/libnds/lib\libfilesystem.a(nitrofs.o)
 .debug_info    0x0000dfad     0x1f2c c:/devkitPro/libnds/lib\libfat.a(libfat.o)
 .debug_info    0x0000fed9     0x292e c:/devkitPro/libnds/lib\libfat.a(partition.o)
 .debug_info    0x00012807      0xe82 c:/devkitPro/libnds/lib\libfat.a(cache.o)
 .debug_info    0x00013689     0x2a7d c:/devkitPro/libnds/lib\libfat.a(directory.o)
 .debug_info    0x00016106      0x257 c:/devkitPro/libnds/lib\libfat.a(disc.o)
 .debug_info    0x0001635d     0x26f6 c:/devkitPro/libnds/lib\libfat.a(fatdir.o)
 .debug_info    0x00018a53     0x3145 c:/devkitPro/libnds/lib\libfat.a(fatfile.o)
 .debug_info    0x0001bb98      0xdb6 c:/devkitPro/libnds/lib\libfat.a(file_allocation_table.o)
 .debug_info    0x0001c94e      0x2ac c:/devkitPro/libnds/lib\libfat.a(filetime.o)
 .debug_info    0x0001cbfa      0x12d c:/devkitPro/libnds/lib\libfat.a(lock.o)
 .debug_info    0x0001cd27     0x2420 c:/devkitPro/libnds/lib\libnds9.a(console.o)
 .debug_info    0x0001f147      0xca8 c:/devkitPro/libnds/lib\libnds9.a(sprite.o)
 .debug_info    0x0001fdef     0x10ac c:/devkitPro/libnds/lib\libnds9.a(sprite_alloc.o)
 .debug_info    0x00020e9b      0x55c c:/devkitPro/libnds/lib\libnds9.a(trig.o)
 .debug_info    0x000213f7      0x71e c:/devkitPro/libnds/lib\libnds9.a(video.o)
 .debug_info    0x00021b15      0x7ee c:/devkitPro/libnds/lib\libnds9.a(dldi.o)
 .debug_info    0x00022303      0x9cc c:/devkitPro/libnds/lib\libnds9.a(dsi_sd.o)
 .debug_info    0x00022ccf     0x1030 c:/devkitPro/libnds/lib\libnds9.a(initSystem.o)
 .debug_info    0x00023cff      0x4c8 c:/devkitPro/libnds/lib\libnds9.a(card.o)
 .debug_info    0x000241c7     0x1546 c:/devkitPro/libnds/lib\libnds9.a(fifosystem.o)
 .debug_info    0x0002570d      0x5b4 c:/devkitPro/libnds/lib\libnds9.a(interrupts.o)
 .debug_info    0x00025cc1      0x323 c:/devkitPro/libnds/lib\libnds9.a(libnds_exit.arm.o)
 .debug_info    0x00025fe4       0xba c:/devkitPro/libnds/lib\libnds9.a(dcache.o)
 .debug_info    0x0002609e       0xc2 c:/devkitPro/libnds/lib\libnds9.a(dldi_stub.o)
 .debug_info    0x00026160       0xc4 c:/devkitPro/libnds/lib\libnds9.a(mpu_setup.o)
 .debug_info    0x00026224       0xbf c:/devkitPro/libnds/lib\libnds9.a(biosCalls.o)
 .debug_info    0x000262e3       0xc0 c:/devkitPro/libnds/lib\libnds9.a(debugprint.o)
 .debug_info    0x000263a3       0xc9 c:/devkitPro/libnds/lib\libnds9.a(interruptDispatcher.o)
 .debug_info    0x0002646c       0xc2 c:/devkitPro/libnds/lib\libnds9.a(swiSoftReset.o)
 .debug_info    0x0002652e      0x91d c:/devkitPro/libnds/lib\libnds9.a(background.o)
 .debug_info    0x00026e4b      0x91b c:/devkitPro/libnds/lib\libnds9.a(system.o)

.debug_abbrev   0x00000000     0x5d42
 *(.debug_abbrev)
 .debug_abbrev  0x00000000      0x195 main.o
 .debug_abbrev  0x00000195      0x396 c:/Users/Derrick/Desktop/nflib_20120804/nflib/examples/graphics/backbuffer/nflib/lib\libnflib.a(nf_2d.o)
 .debug_abbrev  0x0000052b      0x2ee c:/Users/Derrick/Desktop/nflib_20120804/nflib/examples/graphics/backbuffer/nflib/lib\libnflib.a(nf_basic.o)
 .debug_abbrev  0x00000819      0x407 c:/Users/Derrick/Desktop/nflib_20120804/nflib/examples/graphics/backbuffer/nflib/lib\libnflib.a(nf_bitmapbg.o)
 .debug_abbrev  0x00000c20      0x41d c:/Users/Derrick/Desktop/nflib_20120804/nflib/examples/graphics/backbuffer/nflib/lib\libnflib.a(nf_sprite256.o)
 .debug_abbrev  0x0000103d      0x427 c:/Users/Derrick/Desktop/nflib_20120804/nflib/examples/graphics/backbuffer/nflib/lib\libnflib.a(nf_tiledbg.o)
 .debug_abbrev  0x00001464      0x438 c:/devkitPro/libnds/lib\libfilesystem.a(nitrofs.o)
 .debug_abbrev  0x0000189c      0x397 c:/devkitPro/libnds/lib\libfat.a(libfat.o)
 .debug_abbrev  0x00001c33      0x435 c:/devkitPro/libnds/lib\libfat.a(partition.o)
 .debug_abbrev  0x00002068      0x321 c:/devkitPro/libnds/lib\libfat.a(cache.o)
 .debug_abbrev  0x00002389      0x4c1 c:/devkitPro/libnds/lib\libfat.a(directory.o)
 .debug_abbrev  0x0000284a       0xe3 c:/devkitPro/libnds/lib\libfat.a(disc.o)
 .debug_abbrev  0x0000292d      0x3dc c:/devkitPro/libnds/lib\libfat.a(fatdir.o)
 .debug_abbrev  0x00002d09      0x4ff c:/devkitPro/libnds/lib\libfat.a(fatfile.o)
 .debug_abbrev  0x00003208      0x30f c:/devkitPro/libnds/lib\libfat.a(file_allocation_table.o)
 .debug_abbrev  0x00003517       0xf0 c:/devkitPro/libnds/lib\libfat.a(filetime.o)
 .debug_abbrev  0x00003607       0x7f c:/devkitPro/libnds/lib\libfat.a(lock.o)
 .debug_abbrev  0x00003686      0x50d c:/devkitPro/libnds/lib\libnds9.a(console.o)
 .debug_abbrev  0x00003b93      0x34d c:/devkitPro/libnds/lib\libnds9.a(sprite.o)
 .debug_abbrev  0x00003ee0      0x30e c:/devkitPro/libnds/lib\libnds9.a(sprite_alloc.o)
 .debug_abbrev  0x000041ee      0x1ff c:/devkitPro/libnds/lib\libnds9.a(trig.o)
 .debug_abbrev  0x000043ed      0x209 c:/devkitPro/libnds/lib\libnds9.a(video.o)
 .debug_abbrev  0x000045f6      0x26d c:/devkitPro/libnds/lib\libnds9.a(dldi.o)
 .debug_abbrev  0x00004863      0x245 c:/devkitPro/libnds/lib\libnds9.a(dsi_sd.o)
 .debug_abbrev  0x00004aa8      0x2dc c:/devkitPro/libnds/lib\libnds9.a(initSystem.o)
 .debug_abbrev  0x00004d84      0x1d5 c:/devkitPro/libnds/lib\libnds9.a(card.o)
 .debug_abbrev  0x00004f59      0x470 c:/devkitPro/libnds/lib\libnds9.a(fifosystem.o)
 .debug_abbrev  0x000053c9      0x239 c:/devkitPro/libnds/lib\libnds9.a(interrupts.o)
 .debug_abbrev  0x00005602      0x175 c:/devkitPro/libnds/lib\libnds9.a(libnds_exit.arm.o)
 .debug_abbrev  0x00005777       0x14 c:/devkitPro/libnds/lib\libnds9.a(dcache.o)
 .debug_abbrev  0x0000578b       0x14 c:/devkitPro/libnds/lib\libnds9.a(dldi_stub.o)
 .debug_abbrev  0x0000579f       0x14 c:/devkitPro/libnds/lib\libnds9.a(mpu_setup.o)
 .debug_abbrev  0x000057b3       0x14 c:/devkitPro/libnds/lib\libnds9.a(biosCalls.o)
 .debug_abbrev  0x000057c7       0x14 c:/devkitPro/libnds/lib\libnds9.a(debugprint.o)
 .debug_abbrev  0x000057db       0x14 c:/devkitPro/libnds/lib\libnds9.a(interruptDispatcher.o)
 .debug_abbrev  0x000057ef       0x14 c:/devkitPro/libnds/lib\libnds9.a(swiSoftReset.o)
 .debug_abbrev  0x00005803      0x2d5 c:/devkitPro/libnds/lib\libnds9.a(background.o)
 .debug_abbrev  0x00005ad8      0x26a c:/devkitPro/libnds/lib\libnds9.a(system.o)

.debug_line     0x00000000     0x8aff
 *(.debug_line)
 .debug_line    0x00000000      0x23c main.o
 .debug_line    0x0000023c      0x373 c:/Users/Derrick/Desktop/nflib_20120804/nflib/examples/graphics/backbuffer/nflib/lib\libnflib.a(nf_2d.o)
 .debug_line    0x000005af      0x38d c:/Users/Derrick/Desktop/nflib_20120804/nflib/examples/graphics/backbuffer/nflib/lib\libnflib.a(nf_basic.o)
 .debug_line    0x0000093c      0x5a7 c:/Users/Derrick/Desktop/nflib_20120804/nflib/examples/graphics/backbuffer/nflib/lib\libnflib.a(nf_bitmapbg.o)
 .debug_line    0x00000ee3      0x968 c:/Users/Derrick/Desktop/nflib_20120804/nflib/examples/graphics/backbuffer/nflib/lib\libnflib.a(nf_sprite256.o)
 .debug_line    0x0000184b      0xaea c:/Users/Derrick/Desktop/nflib_20120804/nflib/examples/graphics/backbuffer/nflib/lib\libnflib.a(nf_tiledbg.o)
 .debug_line    0x00002335      0x62d c:/devkitPro/libnds/lib\libfilesystem.a(nitrofs.o)
 .debug_line    0x00002962      0x416 c:/devkitPro/libnds/lib\libfat.a(libfat.o)
 .debug_line    0x00002d78      0x6b7 c:/devkitPro/libnds/lib\libfat.a(partition.o)
 .debug_line    0x0000342f      0x38b c:/devkitPro/libnds/lib\libfat.a(cache.o)
 .debug_line    0x000037ba      0xa75 c:/devkitPro/libnds/lib\libfat.a(directory.o)
 .debug_line    0x0000422f      0x10d c:/devkitPro/libnds/lib\libfat.a(disc.o)
 .debug_line    0x0000433c      0x62c c:/devkitPro/libnds/lib\libfat.a(fatdir.o)
 .debug_line    0x00004968      0x983 c:/devkitPro/libnds/lib\libfat.a(fatfile.o)
 .debug_line    0x000052eb      0x36b c:/devkitPro/libnds/lib\libfat.a(file_allocation_table.o)
 .debug_line    0x00005656      0x170 c:/devkitPro/libnds/lib\libfat.a(filetime.o)
 .debug_line    0x000057c6       0x80 c:/devkitPro/libnds/lib\libfat.a(lock.o)
 .debug_line    0x00005846      0x715 c:/devkitPro/libnds/lib\libnds9.a(console.o)
 .debug_line    0x00005f5b      0x32f c:/devkitPro/libnds/lib\libnds9.a(sprite.o)
 .debug_line    0x0000628a      0x2f9 c:/devkitPro/libnds/lib\libnds9.a(sprite_alloc.o)
 .debug_line    0x00006583      0x2a4 c:/devkitPro/libnds/lib\libnds9.a(trig.o)
 .debug_line    0x00006827      0x241 c:/devkitPro/libnds/lib\libnds9.a(video.o)
 .debug_line    0x00006a68      0x3a8 c:/devkitPro/libnds/lib\libnds9.a(dldi.o)
 .debug_line    0x00006e10      0x223 c:/devkitPro/libnds/lib\libnds9.a(dsi_sd.o)
 .debug_line    0x00007033      0x37e c:/devkitPro/libnds/lib\libnds9.a(initSystem.o)
 .debug_line    0x000073b1      0x225 c:/devkitPro/libnds/lib\libnds9.a(card.o)
 .debug_line    0x000075d6      0x6c9 c:/devkitPro/libnds/lib\libnds9.a(fifosystem.o)
 .debug_line    0x00007c9f      0x26e c:/devkitPro/libnds/lib\libnds9.a(interrupts.o)
 .debug_line    0x00007f0d      0x1cc c:/devkitPro/libnds/lib\libnds9.a(libnds_exit.arm.o)
 .debug_line    0x000080d9       0xa2 c:/devkitPro/libnds/lib\libnds9.a(dcache.o)
 .debug_line    0x0000817b       0x8b c:/devkitPro/libnds/lib\libnds9.a(dldi_stub.o)
 .debug_line    0x00008206      0x101 c:/devkitPro/libnds/lib\libnds9.a(mpu_setup.o)
 .debug_line    0x00008307       0xc3 c:/devkitPro/libnds/lib\libnds9.a(biosCalls.o)
 .debug_line    0x000083ca       0x9f c:/devkitPro/libnds/lib\libnds9.a(debugprint.o)
 .debug_line    0x00008469       0xc7 c:/devkitPro/libnds/lib\libnds9.a(interruptDispatcher.o)
 .debug_line    0x00008530       0x97 c:/devkitPro/libnds/lib\libnds9.a(swiSoftReset.o)
 .debug_line    0x000085c7      0x2b2 c:/devkitPro/libnds/lib\libnds9.a(background.o)
 .debug_line    0x00008879      0x286 c:/devkitPro/libnds/lib\libnds9.a(system.o)

.debug_frame    0x00000000     0x2544
 *(.debug_frame)
 .debug_frame   0x00000000       0x3c main.o
 .debug_frame   0x0000003c      0x198 c:/Users/Derrick/Desktop/nflib_20120804/nflib/examples/graphics/backbuffer/nflib/lib\libnflib.a(nf_2d.o)
 .debug_frame   0x000001d4       0x7c c:/Users/Derrick/Desktop/nflib_20120804/nflib/examples/graphics/backbuffer/nflib/lib\libnflib.a(nf_basic.o)
 .debug_frame   0x00000250      0x2a4 c:/Users/Derrick/Desktop/nflib_20120804/nflib/examples/graphics/backbuffer/nflib/lib\libnflib.a(nf_bitmapbg.o)
 .debug_frame   0x000004f4      0x2cc c:/Users/Derrick/Desktop/nflib_20120804/nflib/examples/graphics/backbuffer/nflib/lib\libnflib.a(nf_sprite256.o)
 .debug_frame   0x000007c0      0x3a8 c:/Users/Derrick/Desktop/nflib_20120804/nflib/examples/graphics/backbuffer/nflib/lib\libnflib.a(nf_tiledbg.o)
 .debug_frame   0x00000b68      0x1ac c:/devkitPro/libnds/lib\libfilesystem.a(nitrofs.o)
 .debug_frame   0x00000d14       0xd8 c:/devkitPro/libnds/lib\libfat.a(libfat.o)
 .debug_frame   0x00000dec      0x134 c:/devkitPro/libnds/lib\libfat.a(partition.o)
 .debug_frame   0x00000f20      0x1b0 c:/devkitPro/libnds/lib\libfat.a(cache.o)
 .debug_frame   0x000010d0      0x26c c:/devkitPro/libnds/lib\libfat.a(directory.o)
 .debug_frame   0x0000133c       0x20 c:/devkitPro/libnds/lib\libfat.a(disc.o)
 .debug_frame   0x0000135c      0x17c c:/devkitPro/libnds/lib\libfat.a(fatdir.o)
 .debug_frame   0x000014d8      0x210 c:/devkitPro/libnds/lib\libfat.a(fatfile.o)
 .debug_frame   0x000016e8      0x120 c:/devkitPro/libnds/lib\libfat.a(file_allocation_table.o)
 .debug_frame   0x00001808       0x58 c:/devkitPro/libnds/lib\libfat.a(filetime.o)
 .debug_frame   0x00001860       0x50 c:/devkitPro/libnds/lib\libfat.a(lock.o)
 .debug_frame   0x000018b0      0x1ac c:/devkitPro/libnds/lib\libnds9.a(console.o)
 .debug_frame   0x00001a5c      0x114 c:/devkitPro/libnds/lib\libnds9.a(sprite.o)
 .debug_frame   0x00001b70       0xbc c:/devkitPro/libnds/lib\libnds9.a(sprite_alloc.o)
 .debug_frame   0x00001c2c       0xf0 c:/devkitPro/libnds/lib\libnds9.a(trig.o)
 .debug_frame   0x00001d1c       0xc4 c:/devkitPro/libnds/lib\libnds9.a(video.o)
 .debug_frame   0x00001de0       0x94 c:/devkitPro/libnds/lib\libnds9.a(dldi.o)
 .debug_frame   0x00001e74       0xa0 c:/devkitPro/libnds/lib\libnds9.a(dsi_sd.o)
 .debug_frame   0x00001f14       0x2c c:/devkitPro/libnds/lib\libnds9.a(initSystem.o)
 .debug_frame   0x00001f40       0xf4 c:/devkitPro/libnds/lib\libnds9.a(card.o)
 .debug_frame   0x00002034      0x2b8 c:/devkitPro/libnds/lib\libnds9.a(fifosystem.o)
 .debug_frame   0x000022ec       0xb4 c:/devkitPro/libnds/lib\libnds9.a(interrupts.o)
 .debug_frame   0x000023a0       0x38 c:/devkitPro/libnds/lib\libnds9.a(libnds_exit.arm.o)
 .debug_frame   0x000023d8       0xa4 c:/devkitPro/libnds/lib\libnds9.a(background.o)
 .debug_frame   0x0000247c       0xc8 c:/devkitPro/libnds/lib\libnds9.a(system.o)

.debug_str      0x00000000     0x655f
 *(.debug_str)
 .debug_str     0x00000000      0x446 main.o
                                0x4b8 (size before relaxing)
 .debug_str     0x00000446      0x740 c:/Users/Derrick/Desktop/nflib_20120804/nflib/examples/graphics/backbuffer/nflib/lib\libnflib.a(nf_2d.o)
                                0xb08 (size before relaxing)
 .debug_str     0x00000b86      0x26e c:/Users/Derrick/Desktop/nflib_20120804/nflib/examples/graphics/backbuffer/nflib/lib\libnflib.a(nf_basic.o)
                                0x72d (size before relaxing)
 .debug_str     0x00000df4      0xa60 c:/Users/Derrick/Desktop/nflib_20120804/nflib/examples/graphics/backbuffer/nflib/lib\libnflib.a(nf_bitmapbg.o)
                               0x1031 (size before relaxing)
 .debug_str     0x00001854      0x912 c:/Users/Derrick/Desktop/nflib_20120804/nflib/examples/graphics/backbuffer/nflib/lib\libnflib.a(nf_sprite256.o)
                               0x1582 (size before relaxing)
 .debug_str     0x00002166      0x47e c:/Users/Derrick/Desktop/nflib_20120804/nflib/examples/graphics/backbuffer/nflib/lib\libnflib.a(nf_tiledbg.o)
                               0x12fa (size before relaxing)
 .debug_str     0x000025e4      0x6cd c:/devkitPro/libnds/lib\libfilesystem.a(nitrofs.o)
                                0xc6e (size before relaxing)
 .debug_str     0x00002cb1      0x57e c:/devkitPro/libnds/lib\libfat.a(libfat.o)
                                0xd93 (size before relaxing)
 .debug_str     0x0000322f      0x5a4 c:/devkitPro/libnds/lib\libfat.a(partition.o)
                               0x1137 (size before relaxing)
 .debug_str     0x000037d3      0x1dc c:/devkitPro/libnds/lib\libfat.a(cache.o)
                                0x529 (size before relaxing)
 .debug_str     0x000039af      0x811 c:/devkitPro/libnds/lib\libfat.a(directory.o)
                                0xe6d (size before relaxing)
 .debug_str     0x000041c0       0x62 c:/devkitPro/libnds/lib\libfat.a(disc.o)
                                0x240 (size before relaxing)
 .debug_str     0x00004222      0x207 c:/devkitPro/libnds/lib\libfat.a(fatdir.o)
                                0xef9 (size before relaxing)
 .debug_str     0x00004429      0x237 c:/devkitPro/libnds/lib\libfat.a(fatfile.o)
                                0xf9c (size before relaxing)
 .debug_str     0x00004660       0xc3 c:/devkitPro/libnds/lib\libfat.a(file_allocation_table.o)
                                0x5ff (size before relaxing)
 .debug_str     0x00004723       0x75 c:/devkitPro/libnds/lib\libfat.a(filetime.o)
                                0x1d3 (size before relaxing)
 .debug_str     0x00004798       0x50 c:/devkitPro/libnds/lib\libfat.a(lock.o)
                                0x136 (size before relaxing)
 .debug_str     0x000047e8      0x4d5 c:/devkitPro/libnds/lib\libnds9.a(console.o)
                               0x10c6 (size before relaxing)
 .debug_str     0x00004cbd      0x140 c:/devkitPro/libnds/lib\libnds9.a(sprite.o)
                                0x7bf (size before relaxing)
 .debug_str     0x00004dfd      0x106 c:/devkitPro/libnds/lib\libnds9.a(sprite_alloc.o)
                                0x75b (size before relaxing)
 .debug_str     0x00004f03       0xf0 c:/devkitPro/libnds/lib\libnds9.a(trig.o)
                                0x1e9 (size before relaxing)
 .debug_str     0x00004ff3      0x2de c:/devkitPro/libnds/lib\libnds9.a(video.o)
                                0xb3e (size before relaxing)
 .debug_str     0x000052d1      0x1d5 c:/devkitPro/libnds/lib\libnds9.a(dldi.o)
                                0x415 (size before relaxing)
 .debug_str     0x000054a6      0x35e c:/devkitPro/libnds/lib\libnds9.a(dsi_sd.o)
                                0x577 (size before relaxing)
 .debug_str     0x00005804      0x353 c:/devkitPro/libnds/lib\libnds9.a(initSystem.o)
                                0xa02 (size before relaxing)
 .debug_str     0x00005b57       0xee c:/devkitPro/libnds/lib\libnds9.a(card.o)
                                0x1e5 (size before relaxing)
 .debug_str     0x00005c45      0x49f c:/devkitPro/libnds/lib\libnds9.a(fifosystem.o)
                                0x793 (size before relaxing)
 .debug_str     0x000060e4      0x10e c:/devkitPro/libnds/lib\libnds9.a(interrupts.o)
                                0x382 (size before relaxing)
 .debug_str     0x000061f2      0x142 c:/devkitPro/libnds/lib\libnds9.a(libnds_exit.arm.o)
                                0x2c6 (size before relaxing)
 .debug_str     0x00006334      0x106 c:/devkitPro/libnds/lib\libnds9.a(background.o)
                                0x687 (size before relaxing)
 .debug_str     0x0000643a      0x125 c:/devkitPro/libnds/lib\libnds9.a(system.o)
                                0x5dd (size before relaxing)

.debug_loc      0x00000000    0x16b6a
 *(.debug_loc)
 .debug_loc     0x00000000      0x157 main.o
 .debug_loc     0x00000157      0xdb9 c:/Users/Derrick/Desktop/nflib_20120804/nflib/examples/graphics/backbuffer/nflib/lib\libnflib.a(nf_2d.o)
 .debug_loc     0x00000f10      0x2d9 c:/Users/Derrick/Desktop/nflib_20120804/nflib/examples/graphics/backbuffer/nflib/lib\libnflib.a(nf_basic.o)
 .debug_loc     0x000011e9      0xdba c:/Users/Derrick/Desktop/nflib_20120804/nflib/examples/graphics/backbuffer/nflib/lib\libnflib.a(nf_bitmapbg.o)
 .debug_loc     0x00001fa3     0x1325 c:/Users/Derrick/Desktop/nflib_20120804/nflib/examples/graphics/backbuffer/nflib/lib\libnflib.a(nf_sprite256.o)
 .debug_loc     0x000032c8     0x28ce c:/Users/Derrick/Desktop/nflib_20120804/nflib/examples/graphics/backbuffer/nflib/lib\libnflib.a(nf_tiledbg.o)
 .debug_loc     0x00005b96     0x1e09 c:/devkitPro/libnds/lib\libfilesystem.a(nitrofs.o)
 .debug_loc     0x0000799f      0x5a3 c:/devkitPro/libnds/lib\libfat.a(libfat.o)
 .debug_loc     0x00007f42      0xd7f c:/devkitPro/libnds/lib\libfat.a(partition.o)
 .debug_loc     0x00008cc1     0x110d c:/devkitPro/libnds/lib\libfat.a(cache.o)
 .debug_loc     0x00009dce     0x2c66 c:/devkitPro/libnds/lib\libfat.a(directory.o)
 .debug_loc     0x0000ca34     0x11c2 c:/devkitPro/libnds/lib\libfat.a(fatdir.o)
 .debug_loc     0x0000dbf6     0x2c29 c:/devkitPro/libnds/lib\libfat.a(fatfile.o)
 .debug_loc     0x0001081f      0xcc2 c:/devkitPro/libnds/lib\libfat.a(file_allocation_table.o)
 .debug_loc     0x000114e1       0xc6 c:/devkitPro/libnds/lib\libfat.a(filetime.o)
 .debug_loc     0x000115a7      0xffa c:/devkitPro/libnds/lib\libnds9.a(console.o)
 .debug_loc     0x000125a1      0x731 c:/devkitPro/libnds/lib\libnds9.a(sprite.o)
 .debug_loc     0x00012cd2      0x9c0 c:/devkitPro/libnds/lib\libnds9.a(sprite_alloc.o)
 .debug_loc     0x00013692      0x9dd c:/devkitPro/libnds/lib\libnds9.a(trig.o)
 .debug_loc     0x0001406f      0x2a1 c:/devkitPro/libnds/lib\libnds9.a(video.o)
 .debug_loc     0x00014310      0x2e0 c:/devkitPro/libnds/lib\libnds9.a(dldi.o)
 .debug_loc     0x000145f0      0x2f2 c:/devkitPro/libnds/lib\libnds9.a(dsi_sd.o)
 .debug_loc     0x000148e2       0x3f c:/devkitPro/libnds/lib\libnds9.a(initSystem.o)
 .debug_loc     0x00014921      0x460 c:/devkitPro/libnds/lib\libnds9.a(card.o)
 .debug_loc     0x00014d81     0x149c c:/devkitPro/libnds/lib\libnds9.a(fifosystem.o)
 .debug_loc     0x0001621d      0x22a c:/devkitPro/libnds/lib\libnds9.a(interrupts.o)
 .debug_loc     0x00016447       0x78 c:/devkitPro/libnds/lib\libnds9.a(libnds_exit.arm.o)
 .debug_loc     0x000164bf      0x3dc c:/devkitPro/libnds/lib\libnds9.a(background.o)
 .debug_loc     0x0001689b      0x2cf c:/devkitPro/libnds/lib\libnds9.a(system.o)

.debug_macinfo
 *(.debug_macinfo)

.debug_weaknames
 *(.debug_weaknames)

.debug_funcnames
 *(.debug_funcnames)

.debug_typenames
 *(.debug_typenames)

.debug_varnames
 *(.debug_varnames)

.stack          0x00080000        0x0
                0x00080000                _stack = .
 *(.stack)
LOAD c:/devkitpro/devkitarm/bin/../lib/gcc/arm-none-eabi/4.7.1/../../../../arm-none-eabi/lib/thumb/ds_arm9_crt0.o
LOAD c:/devkitpro/devkitarm/bin/../lib/gcc/arm-none-eabi/4.7.1/thumb/crti.o
LOAD c:/devkitpro/devkitarm/bin/../lib/gcc/arm-none-eabi/4.7.1/thumb/crtbegin.o
LOAD main.o
LOAD c:/Users/Derrick/Desktop/nflib_20120804/nflib/examples/graphics/backbuffer/nflib/lib\libnflib.a
LOAD c:/devkitPro/libnds/lib\libfilesystem.a
LOAD c:/devkitPro/libnds/lib\libfat.a
LOAD c:/devkitPro/libnds/lib\libnds9.a
START GROUP
LOAD c:/devkitpro/devkitarm/bin/../lib/gcc/arm-none-eabi/4.7.1/thumb\libgcc.a
LOAD c:/devkitpro/devkitarm/bin/../lib/gcc/arm-none-eabi/4.7.1/../../../../arm-none-eabi/lib/thumb\libg.a
LOAD c:/devkitpro/devkitarm/bin/../lib/gcc/arm-none-eabi/4.7.1/../../../../arm-none-eabi/lib/thumb\libc.a
LOAD c:/devkitpro/devkitarm/bin/../lib/gcc/arm-none-eabi/4.7.1/../../../../arm-none-eabi/lib/thumb\libsysbase.a
END GROUP
LOAD c:/devkitpro/devkitarm/bin/../lib/gcc/arm-none-eabi/4.7.1/thumb/crtend.o
LOAD c:/devkitpro/devkitarm/bin/../lib/gcc/arm-none-eabi/4.7.1/thumb/crtn.o
OUTPUT(c:/Users/Derrick/Desktop/nflib_20120804/nflib/examples/graphics/backbuffer/backbuffer.elf elf32-littlearm)

.debug_ranges   0x00000000     0x19f0
 .debug_ranges  0x00000000       0x10 main.o
 .debug_ranges  0x00000010       0x20 c:/Users/Derrick/Desktop/nflib_20120804/nflib/examples/graphics/backbuffer/nflib/lib\libnflib.a(nf_2d.o)
 .debug_ranges  0x00000030       0x30 c:/Users/Derrick/Desktop/nflib_20120804/nflib/examples/graphics/backbuffer/nflib/lib\libnflib.a(nf_basic.o)
 .debug_ranges  0x00000060       0x18 c:/Users/Derrick/Desktop/nflib_20120804/nflib/examples/graphics/backbuffer/nflib/lib\libnflib.a(nf_bitmapbg.o)
 .debug_ranges  0x00000078       0xc8 c:/Users/Derrick/Desktop/nflib_20120804/nflib/examples/graphics/backbuffer/nflib/lib\libnflib.a(nf_sprite256.o)
 .debug_ranges  0x00000140       0xd8 c:/Users/Derrick/Desktop/nflib_20120804/nflib/examples/graphics/backbuffer/nflib/lib\libnflib.a(nf_tiledbg.o)
 .debug_ranges  0x00000218      0x3a8 c:/devkitPro/libnds/lib\libfilesystem.a(nitrofs.o)
 .debug_ranges  0x000005c0       0x98 c:/devkitPro/libnds/lib\libfat.a(libfat.o)
 .debug_ranges  0x00000658      0x180 c:/devkitPro/libnds/lib\libfat.a(partition.o)
 .debug_ranges  0x000007d8      0x350 c:/devkitPro/libnds/lib\libfat.a(directory.o)
 .debug_ranges  0x00000b28       0xf0 c:/devkitPro/libnds/lib\libfat.a(fatdir.o)
 .debug_ranges  0x00000c18      0x2b0 c:/devkitPro/libnds/lib\libfat.a(fatfile.o)
 .debug_ranges  0x00000ec8       0xa0 c:/devkitPro/libnds/lib\libfat.a(file_allocation_table.o)
 .debug_ranges  0x00000f68      0x238 c:/devkitPro/libnds/lib\libnds9.a(console.o)
 .debug_ranges  0x000011a0       0x58 c:/devkitPro/libnds/lib\libnds9.a(sprite.o)
 .debug_ranges  0x000011f8       0x70 c:/devkitPro/libnds/lib\libnds9.a(sprite_alloc.o)
 .debug_ranges  0x00001268       0x70 c:/devkitPro/libnds/lib\libnds9.a(trig.o)
 .debug_ranges  0x000012d8       0x78 c:/devkitPro/libnds/lib\libnds9.a(video.o)
 .debug_ranges  0x00001350       0x30 c:/devkitPro/libnds/lib\libnds9.a(dldi.o)
 .debug_ranges  0x00001380       0x48 c:/devkitPro/libnds/lib\libnds9.a(card.o)
 .debug_ranges  0x000013c8      0x490 c:/devkitPro/libnds/lib\libnds9.a(fifosystem.o)
 .debug_ranges  0x00001858      0x120 c:/devkitPro/libnds/lib\libnds9.a(interrupts.o)
 .debug_ranges  0x00001978       0x78 c:/devkitPro/libnds/lib\libnds9.a(background.o)

.debug_pubtypes
                0x00000000      0x29a
 .debug_pubtypes
                0x00000000      0x29a c:/devkitPro/libnds/lib\libfilesystem.a(nitrofs.o)
